ccopy_reg
_reconstructor
p0
(cpandas.core.frame
DataFrame
p1
c__builtin__
object
p2
Ntp3
Rp4
(dp5
S'_metadata'
p6
(lp7
sS'_typ'
p8
S'dataframe'
p9
sS'_data'
p10
g0
(cpandas.core.internals
BlockManager
p11
g2
Ntp12
Rp13
((lp14
cpandas.core.indexes.base
_new_Index
p15
(cpandas.core.indexes.base
Index
p16
(dp17
S'data'
p18
cnumpy.core.multiarray
_reconstruct
p19
(cnumpy
ndarray
p20
(I0
tp21
S'b'
p22
tp23
Rp24
(I1
(I56
tp25
cnumpy
dtype
p26
(S'O8'
p27
I0
I1
tp28
Rp29
(I3
S'|'
p30
NNNI-1
I-1
I63
tp31
bI00
(lp32
S'year'
p33
aS'type'
p34
aS'procOriginal'
p35
aS'proc'
p36
aS'proc_s0'
p37
aS'cat'
p38
aS'inputWSFile'
p39
aS'nominalDataName'
p40
aS'modelWSFile'
p41
aS'model'
p42
aS'rate'
p43
aS'nominal_yield'
p44
aS'sumw2'
p45
aS'nominal_yield_COWCorr'
p46
aS'photon_id_sf_Diphoton_Photon__up_yield'
p47
aS'photon_id_sf_Diphoton_Photon__down_yield'
p48
aS'photon_presel_sf_Diphoton_Photon__up_yield'
p49
aS'photon_presel_sf_Diphoton_Photon__down_yield'
p50
aS'electron_veto_sf_Diphoton_Photon__up_yield'
p51
aS'electron_veto_sf_Diphoton_Photon__down_yield'
p52
aS'trigger_sf__up_yield'
p53
aS'trigger_sf__down_yield'
p54
aS'L1_prefiring_sf__up_yield'
p55
aS'L1_prefiring_sf__down_yield'
p56
aS'puWeight__up_yield'
p57
aS'puWeight__down_yield'
p58
aS'btag_deepjet_sf_SelectedbJet_jes__up_yield'
p59
aS'btag_deepjet_sf_SelectedbJet_jes__down_yield'
p60
aS'btag_deepjet_sf_SelectedbJet_lf__up_yield'
p61
aS'btag_deepjet_sf_SelectedbJet_lf__down_yield'
p62
aS'btag_deepjet_sf_SelectedbJet_hfstats1__up_yield'
p63
aS'btag_deepjet_sf_SelectedbJet_hfstats1__down_yield'
p64
aS'btag_deepjet_sf_SelectedbJet_hfstats2__up_yield'
p65
aS'btag_deepjet_sf_SelectedbJet_hfstats2__down_yield'
p66
aS'btag_deepjet_sf_SelectedbJet_cferr1__up_yield'
p67
aS'btag_deepjet_sf_SelectedbJet_cferr1__down_yield'
p68
aS'btag_deepjet_sf_SelectedbJet_cferr2__up_yield'
p69
aS'btag_deepjet_sf_SelectedbJet_cferr2__down_yield'
p70
aS'btag_deepjet_sf_SelectedbJet_hf__up_yield'
p71
aS'btag_deepjet_sf_SelectedbJet_hf__down_yield'
p72
aS'btag_deepjet_sf_SelectedbJet_lfstats1__up_yield'
p73
aS'btag_deepjet_sf_SelectedbJet_lfstats1__down_yield'
p74
aS'btag_deepjet_sf_SelectedbJet_lfstats2__up_yield'
p75
aS'btag_deepjet_sf_SelectedbJet_lfstats2__down_yield'
p76
aS'JES_up_yield'
p77
aS'JES_down_yield'
p78
aS'JER_up_yield'
p79
aS'JER_down_yield'
p80
aS'FJER_up_yield'
p81
aS'FJER_down_yield'
p82
aS'FJES_up_yield'
p83
aS'FJES_down_yield'
p84
aS'FJHEM_up_yield'
p85
aS'FJHEM_down_yield'
p86
aS'JetHEM_up_yield'
p87
aS'JetHEM_down_yield'
p88
atp89
bsS'name'
p90
Nstp91
Rp92
ag15
(cpandas.core.indexes.numeric
Int64Index
p93
(dp94
g18
g19
(g20
(I0
tp95
g22
tp96
Rp97
(I1
(I6
tp98
g26
(S'i8'
p99
I0
I1
tp100
Rp101
(I3
S'<'
p102
NNNI-1
I-1
I0
tp103
bI00
S'\x00\x00\x00\x00\x00\x00\x00\x00\x01\x00\x00\x00\x00\x00\x00\x00\x02\x00\x00\x00\x00\x00\x00\x00\x03\x00\x00\x00\x00\x00\x00\x00\x04\x00\x00\x00\x00\x00\x00\x00\x05\x00\x00\x00\x00\x00\x00\x00'
p104
tp105
bsg90
Nstp106
Rp107
a(lp108
g19
(g20
(I0
tp109
g22
tp110
Rp111
(I1
(I1
I6
tp112
g26
(S'f8'
p113
I0
I1
tp114
Rp115
(I3
S'<'
p116
NNNI-1
I-1
I0
tp117
bI00
S'\x00\x00\x00\x00\xc06\xed@\x00\x00\x00\x00\x00A\xe4@\x00\x00\x00\x00\x00\x06\xd3@\x00\x00\x00\x00\x00^\xd0@\x00\x00\x00\x00\x00\x00\xf0?\x00\x00\x00\x00\x00\x00\xf0\xbf'
p118
tp119
bag19
(g20
(I0
tp120
g22
tp121
Rp122
(I1
(I55
I6
tp123
g29
I00
(lp124
S'2018'
p125
aS'2017'
p126
aS'2016pre'
p127
aS'2016post'
p128
aS'merged'
p129
ag129
aS'sig'
p130
ag130
ag130
ag130
aS'bkg'
p131
ag18
aS'gghh'
p132
ag132
ag132
ag132
aS'bkg_mass'
p133
aS'data_obs'
p134
aS'gghh_2018_hgg'
p135
aS'gghh_2017_hgg'
p136
aS'gghh_2016pre_hgg'
p137
aS'gghh_2016post_hgg'
p138
ag133
ag134
ag132
ag132
ag132
ag132
aS'-'
p139
ag139
aS'resolved_cat0'
p140
ag140
ag140
ag140
ag140
ag140
aS'/eos/cms/store/group/phys_higgs/cmshgg/zhjie/output/output_1000/opt/2018/root/addsys/ws_gghh_cat0_125/output_NMSSM_XToYHTo2B2G_MX-1000_MY-125_cat0_2018_M125_pythia8_gghh.root'
p141
aS'/eos/cms/store/group/phys_higgs/cmshgg/zhjie/output/output_1000/opt/2017/root/addsys/ws_gghh_cat0_125/output_NMSSM_XToYHTo2B2G_MX-1000_MY-125_cat0_2017_M125_pythia8_gghh.root'
p142
aS'/eos/cms/store/group/phys_higgs/cmshgg/zhjie/output/output_1000/opt/2016pre/root/addsys/ws_gghh_cat0_125/output_NMSSM_XToYHTo2B2G_MX-1000_MY-125_cat0_2016pre_M125_pythia8_gghh.root'
p143
aS'/eos/cms/store/group/phys_higgs/cmshgg/zhjie/output/output_1000/opt/2016post/root/addsys/ws_gghh_cat0_125/output_NMSSM_XToYHTo2B2G_MX-1000_MY-125_cat0_2016post_M125_pythia8_gghh.root'
p144
ag139
ag139
aS'gghh_125_13TeV_resolved_cat0'
p145
aS'gghh_125_13TeV_resolved_cat0'
p146
aS'gghh_125_13TeV_resolved_cat0'
p147
aS'gghh_125_13TeV_resolved_cat0'
p148
ag139
ag139
aS'/eos/user/z/zhjie/CMSSW_10_2_13/src/flashggFinalFit/Signal/outdir_packaged_mergeyears_1000_M125_cat0/CMS-HGG_sigfit_packaged_resolved_cat0.root'
p149
aS'/eos/user/z/zhjie/CMSSW_10_2_13/src/flashggFinalFit/Signal/outdir_packaged_mergeyears_1000_M125_cat0/CMS-HGG_sigfit_packaged_resolved_cat0.root'
p150
aS'/eos/user/z/zhjie/CMSSW_10_2_13/src/flashggFinalFit/Signal/outdir_packaged_mergeyears_1000_M125_cat0/CMS-HGG_sigfit_packaged_resolved_cat0.root'
p151
aS'/eos/user/z/zhjie/CMSSW_10_2_13/src/flashggFinalFit/Signal/outdir_packaged_mergeyears_1000_M125_cat0/CMS-HGG_sigfit_packaged_resolved_cat0.root'
p152
aS'/eos/cms/store/group/phys_higgs/cmshgg/zhjie/output/output_1000/opt/data/root/ws_cat0_125/CMS-HGG_multipdf_resolved_cat0.root'
p153
ag153
aS'wsig_13TeV:hggpdfsmrel_gghh_2018_resolved_cat0_13TeV'
p154
aS'wsig_13TeV:hggpdfsmrel_gghh_2017_resolved_cat0_13TeV'
p155
aS'wsig_13TeV:hggpdfsmrel_gghh_2016pre_resolved_cat0_13TeV'
p156
aS'wsig_13TeV:hggpdfsmrel_gghh_2016post_resolved_cat0_13TeV'
p157
aS'multipdf:CMS_hgg_resolved_cat0_13TeV_bkgshape'
p158
aS'multipdf:roohist_data_mass_resolved_cat0'
p159
aF0.10742388061308608
aF0.10698162016348216
aF0.11236508129570255
aF0.11130066413056164
ag139
ag139
aF2.6473558714633993e-07
aF2.5711971954955217e-07
aF5.334556543317337e-07
aF6.129752306616921e-07
ag139
ag139
aF0.10742388061308608
aF0.10698162016348216
aF0.11236508129570255
aF0.11130066413056164
ag139
ag139
aF0.10979723323314919
aF0.11214907194620716
aF0.1154154091615474
aF0.11358090984894686
ag139
ag139
aF0.10507635911769382
aF0.10192195115178197
aF0.10935585080332122
aF0.10904337902452643
ag139
ag139
aF0.11241232574192397
aF0.11137016492840716
aF0.11706903324613571
aF0.1159748884320406
ag139
ag139
aF0.10254873793103113
aF0.10268154433350632
aF0.10775764906983153
aF0.10672261917017666
ag139
ag139
aF0.10757585364095083
aF0.107238124211548
aF0.11255626740806997
aF0.11148734591382965
ag139
ag139
aF0.10727204076625205
aF0.10672546833985277
aF0.11217408126860032
aF0.11111416233659692
ag139
ag139
aF0.10765484844080768
aF0.107243975106225
aF0.11259986641768667
aF0.11153218760647696
ag139
ag139
aF0.10719316474188065
aF0.10671957789311576
aF0.1121305422926434
aF0.11106938254121171
ag139
ag139
aF0.10742388061308608
aF0.10596941520473006
aF0.11164250295088904
aF0.11062627560390542
ag139
ag139
aF0.10742388061308608
aF0.10798550021274615
aF0.11308925220588825
aF0.1119765192203988
ag139
ag139
aF0.1075300598326537
aF0.1072912373826732
aF0.11326199608303243
aF0.11146195318072959
ag139
ag139
aF0.10730486581151343
aF0.10672655312196395
aF0.11155292858515549
aF0.11109120243970919
ag139
ag139
aF0.1075048346572786
aF0.10696342391979743
aF0.11254831866960928
aF0.11146850389162496
ag139
ag139
aF0.1074327608471252
aF0.1071444120148535
aF0.11265262756506808
aF0.11153058161608775
ag139
ag139
aF0.10887289600466285
aF0.10827448416239188
aF0.11423865454202645
aF0.1130899326577636
ag139
ag139
aF0.10426942711585281
aF0.10401827852724976
aF0.1086796595658769
aF0.10753392335691053
ag139
ag139
aF0.10737819556196979
aF0.107015631410869
aF0.11225381494148917
aF0.11112053512019746
ag139
ag139
aF0.10742232706006803
aF0.10687218541488244
aF0.11234983317234261
aF0.11128253262852672
ag139
ag139
aF0.1067198372331347
aF0.10611559804681946
aF0.11097712857553994
aF0.10979688809968105
ag139
ag139
aF0.10812993471460591
aF0.10783830501214567
aF0.11372378376541058
aF0.11275492018571658
ag139
ag139
aF0.10768225557597615
aF0.10726953727741462
aF0.11264284456727001
aF0.1116681145174504
ag139
ag139
aF0.1071366082062497
aF0.10666161220192623
aF0.11204505625810823
aF0.11088191166783652
ag139
ag139
aF0.10752457601162976
aF0.10707480802997578
aF0.1124732085503077
aF0.11143485606782966
ag139
ag139
aF0.10730904874606152
aF0.10687303603674701
aF0.1122281675541202
aF0.11113953484461324
ag139
ag139
aF0.10630702376745292
aF0.10559781883482353
aF0.1106987963538555
aF0.10984069199295196
ag139
ag139
aF0.10857109619241936
aF0.10831696505275466
aF0.11405105167281074
aF0.11275876962433852
ag139
ag139
aF0.10744822589284904
aF0.10698419857150927
aF0.11229667097203322
aF0.1112645811181043
ag139
ag139
aF0.10740231612244838
aF0.10697056704672472
aF0.11241800568337967
aF0.1113217595824282
ag139
ag139
aF0.10730840747162736
aF0.10682200066456068
aF0.11205272474582237
aF0.1110608081121649
ag139
ag139
aF0.10755285316843284
aF0.10714405207856648
aF0.1126823547811654
aF0.11154326400886505
ag139
ag139
aF0.1092070892809626
aF0.10866835481558432
aF0.11401215172414204
aF0.11244143486568886
ag139
ag139
aF0.10578241954704731
aF0.1059089832924547
aF0.11108668479982561
aF0.1100424797594596
ag139
ag139
aF0.10751588133594513
aF0.10748965263020845
aF0.11273138388280453
aF0.11121978489271281
ag139
ag139
aF0.1074977713958441
aF0.10710922459538597
aF0.11239790946025083
aF0.11109797811567713
ag139
ag139
aF0.1113885071509988
aF0.11124710913798518
aF0.115198757235291
aF0.11416965844592433
ag139
ag139
aF0.1109571405159816
aF0.11040362619463064
aF0.11500486712779796
aF0.1138556668960772
ag139
ag139
aF0.11071261378500194
aF0.11051565936030622
aF0.11482135513207414
aF0.11371975426566637
ag139
ag139
aF0.11171695896369879
aF0.11106446514549384
aF0.11538328233093707
aF0.11436279079938085
ag139
ag139
aF0.11115989842248684
aF0.10698162016348109
aF0.11236508129570266
aF0.11130066413056126
ag139
ag139
aF0.11145121363905466
aF0.10698162016348109
aF0.11236508129570266
aF0.11130066413056126
ag139
ag139
aF0.10748668393879664
aF0.10698162016348109
aF0.11236508129570266
aF0.11130066413056126
ag139
ag139
aF0.1071949481350815
aF0.10698162016348109
aF0.11236508129570266
aF0.11130066413056126
ag139
ag139
atp160
ba(lp161
g15
(g16
(dp162
g18
g19
(g20
(I0
tp163
g22
tp164
Rp165
(I1
(I1
tp166
g29
I00
(lp167
g43
atp168
bsg90
Nstp169
Rp170
ag15
(g16
(dp171
g18
g19
(g20
(I0
tp172
g22
tp173
Rp174
(I1
(I55
tp175
g29
I00
(lp176
g33
ag34
ag35
ag36
ag37
ag38
ag39
ag40
ag41
ag42
ag44
ag45
ag46
ag47
ag48
ag49
ag50
ag51
ag52
ag53
ag54
ag55
ag56
ag57
ag58
ag59
ag60
ag61
ag62
ag63
ag64
ag65
ag66
ag67
ag68
ag69
ag70
ag71
ag72
ag73
ag74
ag75
ag76
ag77
ag78
ag79
ag80
ag81
ag82
ag83
ag84
ag85
ag86
ag87
ag88
atp177
bsg90
Nstp178
Rp179
a(dp180
S'0.14.1'
p181
(dp182
S'axes'
p183
g14
sS'blocks'
p184
(lp185
(dp186
S'mgr_locs'
p187
c__builtin__
slice
p188
(I10
I11
I1
tp189
Rp190
sS'values'
p191
g111
sa(dp192
g187
g19
(g20
(I0
tp193
g22
tp194
Rp195
(I1
(I55
tp196
g101
I00
S'\x00\x00\x00\x00\x00\x00\x00\x00\x01\x00\x00\x00\x00\x00\x00\x00\x02\x00\x00\x00\x00\x00\x00\x00\x03\x00\x00\x00\x00\x00\x00\x00\x04\x00\x00\x00\x00\x00\x00\x00\x05\x00\x00\x00\x00\x00\x00\x00\x06\x00\x00\x00\x00\x00\x00\x00\x07\x00\x00\x00\x00\x00\x00\x00\x08\x00\x00\x00\x00\x00\x00\x00\t\x00\x00\x00\x00\x00\x00\x00\x0b\x00\x00\x00\x00\x00\x00\x00\x0c\x00\x00\x00\x00\x00\x00\x00\r\x00\x00\x00\x00\x00\x00\x00\x0e\x00\x00\x00\x00\x00\x00\x00\x0f\x00\x00\x00\x00\x00\x00\x00\x10\x00\x00\x00\x00\x00\x00\x00\x11\x00\x00\x00\x00\x00\x00\x00\x12\x00\x00\x00\x00\x00\x00\x00\x13\x00\x00\x00\x00\x00\x00\x00\x14\x00\x00\x00\x00\x00\x00\x00\x15\x00\x00\x00\x00\x00\x00\x00\x16\x00\x00\x00\x00\x00\x00\x00\x17\x00\x00\x00\x00\x00\x00\x00\x18\x00\x00\x00\x00\x00\x00\x00\x19\x00\x00\x00\x00\x00\x00\x00\x1a\x00\x00\x00\x00\x00\x00\x00\x1b\x00\x00\x00\x00\x00\x00\x00\x1c\x00\x00\x00\x00\x00\x00\x00\x1d\x00\x00\x00\x00\x00\x00\x00\x1e\x00\x00\x00\x00\x00\x00\x00\x1f\x00\x00\x00\x00\x00\x00\x00 \x00\x00\x00\x00\x00\x00\x00!\x00\x00\x00\x00\x00\x00\x00"\x00\x00\x00\x00\x00\x00\x00#\x00\x00\x00\x00\x00\x00\x00$\x00\x00\x00\x00\x00\x00\x00%\x00\x00\x00\x00\x00\x00\x00&\x00\x00\x00\x00\x00\x00\x00\'\x00\x00\x00\x00\x00\x00\x00(\x00\x00\x00\x00\x00\x00\x00)\x00\x00\x00\x00\x00\x00\x00*\x00\x00\x00\x00\x00\x00\x00+\x00\x00\x00\x00\x00\x00\x00,\x00\x00\x00\x00\x00\x00\x00-\x00\x00\x00\x00\x00\x00\x00.\x00\x00\x00\x00\x00\x00\x00/\x00\x00\x00\x00\x00\x00\x000\x00\x00\x00\x00\x00\x00\x001\x00\x00\x00\x00\x00\x00\x002\x00\x00\x00\x00\x00\x00\x003\x00\x00\x00\x00\x00\x00\x004\x00\x00\x00\x00\x00\x00\x005\x00\x00\x00\x00\x00\x00\x006\x00\x00\x00\x00\x00\x00\x007\x00\x00\x00\x00\x00\x00\x00'
p197
tp198
bsg191
g122
sasstp199
bsb.