ccopy_reg
_reconstructor
p0
(cpandas.core.frame
DataFrame
p1
c__builtin__
object
p2
Ntp3
Rp4
(dp5
S'_metadata'
p6
(lp7
sS'_typ'
p8
S'dataframe'
p9
sS'_data'
p10
g0
(cpandas.core.internals
BlockManager
p11
g2
Ntp12
Rp13
((lp14
cpandas.core.indexes.base
_new_Index
p15
(cpandas.core.indexes.base
Index
p16
(dp17
S'data'
p18
cnumpy.core.multiarray
_reconstruct
p19
(cnumpy
ndarray
p20
(I0
tp21
S'b'
p22
tp23
Rp24
(I1
(I56
tp25
cnumpy
dtype
p26
(S'O8'
p27
I0
I1
tp28
Rp29
(I3
S'|'
p30
NNNI-1
I-1
I63
tp31
bI00
(lp32
S'year'
p33
aS'type'
p34
aS'procOriginal'
p35
aS'proc'
p36
aS'proc_s0'
p37
aS'cat'
p38
aS'inputWSFile'
p39
aS'nominalDataName'
p40
aS'modelWSFile'
p41
aS'model'
p42
aS'rate'
p43
aS'nominal_yield'
p44
aS'sumw2'
p45
aS'nominal_yield_COWCorr'
p46
aS'photon_id_sf_Diphoton_Photon__up_yield'
p47
aS'photon_id_sf_Diphoton_Photon__down_yield'
p48
aS'photon_presel_sf_Diphoton_Photon__up_yield'
p49
aS'photon_presel_sf_Diphoton_Photon__down_yield'
p50
aS'electron_veto_sf_Diphoton_Photon__up_yield'
p51
aS'electron_veto_sf_Diphoton_Photon__down_yield'
p52
aS'trigger_sf__up_yield'
p53
aS'trigger_sf__down_yield'
p54
aS'L1_prefiring_sf__up_yield'
p55
aS'L1_prefiring_sf__down_yield'
p56
aS'puWeight__up_yield'
p57
aS'puWeight__down_yield'
p58
aS'btag_deepjet_sf_SelectedbJet_jes__up_yield'
p59
aS'btag_deepjet_sf_SelectedbJet_jes__down_yield'
p60
aS'btag_deepjet_sf_SelectedbJet_lf__up_yield'
p61
aS'btag_deepjet_sf_SelectedbJet_lf__down_yield'
p62
aS'btag_deepjet_sf_SelectedbJet_hfstats1__up_yield'
p63
aS'btag_deepjet_sf_SelectedbJet_hfstats1__down_yield'
p64
aS'btag_deepjet_sf_SelectedbJet_hfstats2__up_yield'
p65
aS'btag_deepjet_sf_SelectedbJet_hfstats2__down_yield'
p66
aS'btag_deepjet_sf_SelectedbJet_cferr1__up_yield'
p67
aS'btag_deepjet_sf_SelectedbJet_cferr1__down_yield'
p68
aS'btag_deepjet_sf_SelectedbJet_cferr2__up_yield'
p69
aS'btag_deepjet_sf_SelectedbJet_cferr2__down_yield'
p70
aS'btag_deepjet_sf_SelectedbJet_hf__up_yield'
p71
aS'btag_deepjet_sf_SelectedbJet_hf__down_yield'
p72
aS'btag_deepjet_sf_SelectedbJet_lfstats1__up_yield'
p73
aS'btag_deepjet_sf_SelectedbJet_lfstats1__down_yield'
p74
aS'btag_deepjet_sf_SelectedbJet_lfstats2__up_yield'
p75
aS'btag_deepjet_sf_SelectedbJet_lfstats2__down_yield'
p76
aS'JES_up_yield'
p77
aS'JES_down_yield'
p78
aS'JER_up_yield'
p79
aS'JER_down_yield'
p80
aS'FJER_up_yield'
p81
aS'FJER_down_yield'
p82
aS'FJES_up_yield'
p83
aS'FJES_down_yield'
p84
aS'FJHEM_up_yield'
p85
aS'FJHEM_down_yield'
p86
aS'JetHEM_up_yield'
p87
aS'JetHEM_down_yield'
p88
atp89
bsS'name'
p90
Nstp91
Rp92
ag15
(cpandas.core.indexes.numeric
Int64Index
p93
(dp94
g18
g19
(g20
(I0
tp95
g22
tp96
Rp97
(I1
(I6
tp98
g26
(S'i8'
p99
I0
I1
tp100
Rp101
(I3
S'<'
p102
NNNI-1
I-1
I0
tp103
bI00
S'\x00\x00\x00\x00\x00\x00\x00\x00\x01\x00\x00\x00\x00\x00\x00\x00\x02\x00\x00\x00\x00\x00\x00\x00\x03\x00\x00\x00\x00\x00\x00\x00\x04\x00\x00\x00\x00\x00\x00\x00\x05\x00\x00\x00\x00\x00\x00\x00'
p104
tp105
bsg90
Nstp106
Rp107
a(lp108
g19
(g20
(I0
tp109
g22
tp110
Rp111
(I1
(I1
I6
tp112
g26
(S'f8'
p113
I0
I1
tp114
Rp115
(I3
S'<'
p116
NNNI-1
I-1
I0
tp117
bI00
S'\x00\x00\x00\x00\xc06\xed@\x00\x00\x00\x00\x00A\xe4@\x00\x00\x00\x00\x00\x06\xd3@\x00\x00\x00\x00\x00^\xd0@\x00\x00\x00\x00\x00\x00\xf0?\x00\x00\x00\x00\x00\x00\xf0\xbf'
p118
tp119
bag19
(g20
(I0
tp120
g22
tp121
Rp122
(I1
(I55
I6
tp123
g29
I00
(lp124
S'2018'
p125
aS'2017'
p126
aS'2016pre'
p127
aS'2016post'
p128
aS'merged'
p129
ag129
aS'sig'
p130
ag130
ag130
ag130
aS'bkg'
p131
ag18
aS'gghh'
p132
ag132
ag132
ag132
aS'bkg_mass'
p133
aS'data_obs'
p134
aS'gghh_2018_hgg'
p135
aS'gghh_2017_hgg'
p136
aS'gghh_2016pre_hgg'
p137
aS'gghh_2016post_hgg'
p138
ag133
ag134
ag132
ag132
ag132
ag132
aS'-'
p139
ag139
aS'boosted_cat1'
p140
ag140
ag140
ag140
ag140
ag140
aS'/eos/cms/store/group/phys_higgs/cmshgg/zhjie/output/output_2000_boost/opt/2018/root/addsys/ws_gghh_cat1_400/output_NMSSM_XToYHTo2B2G_MX-2000_MY-400_cat1_2018_M125_pythia8_gghh.root'
p141
aS'/eos/cms/store/group/phys_higgs/cmshgg/zhjie/output/output_2000_boost/opt/2017/root/addsys/ws_gghh_cat1_400/output_NMSSM_XToYHTo2B2G_MX-2000_MY-400_cat1_2017_M125_pythia8_gghh.root'
p142
aS'/eos/cms/store/group/phys_higgs/cmshgg/zhjie/output/output_2000_boost/opt/2016pre/root/addsys/ws_gghh_cat1_400/output_NMSSM_XToYHTo2B2G_MX-2000_MY-400_cat1_2016pre_M125_pythia8_gghh.root'
p143
aS'/eos/cms/store/group/phys_higgs/cmshgg/zhjie/output/output_2000_boost/opt/2016post/root/addsys/ws_gghh_cat1_400/output_NMSSM_XToYHTo2B2G_MX-2000_MY-400_cat1_2016post_M125_pythia8_gghh.root'
p144
ag139
ag139
aS'gghh_125_13TeV_boosted_cat1'
p145
aS'gghh_125_13TeV_boosted_cat1'
p146
aS'gghh_125_13TeV_boosted_cat1'
p147
aS'gghh_125_13TeV_boosted_cat1'
p148
ag139
ag139
aS'/eos/user/z/zhjie/CMSSW_10_2_13/src/flashggFinalFit/Signal/outdir_packaged_mergeyears_boost_masscut_2000_M400_cat1/CMS-HGG_sigfit_packaged_boosted_cat1.root'
p149
aS'/eos/user/z/zhjie/CMSSW_10_2_13/src/flashggFinalFit/Signal/outdir_packaged_mergeyears_boost_masscut_2000_M400_cat1/CMS-HGG_sigfit_packaged_boosted_cat1.root'
p150
aS'/eos/user/z/zhjie/CMSSW_10_2_13/src/flashggFinalFit/Signal/outdir_packaged_mergeyears_boost_masscut_2000_M400_cat1/CMS-HGG_sigfit_packaged_boosted_cat1.root'
p151
aS'/eos/user/z/zhjie/CMSSW_10_2_13/src/flashggFinalFit/Signal/outdir_packaged_mergeyears_boost_masscut_2000_M400_cat1/CMS-HGG_sigfit_packaged_boosted_cat1.root'
p152
aS'/eos/cms/store/group/phys_higgs/cmshgg/zhjie/output/output_1000_boost/opt/data/root/ws_cat1/CMS-HGG_multipdf_boosted_cat1.root'
p153
ag153
aS'wsig_13TeV:hggpdfsmrel_gghh_2018_boosted_cat1_13TeV'
p154
aS'wsig_13TeV:hggpdfsmrel_gghh_2017_boosted_cat1_13TeV'
p155
aS'wsig_13TeV:hggpdfsmrel_gghh_2016pre_boosted_cat1_13TeV'
p156
aS'wsig_13TeV:hggpdfsmrel_gghh_2016post_boosted_cat1_13TeV'
p157
aS'multipdf:CMS_hgg_boosted_cat1_13TeV_bkgshape'
p158
aS'multipdf:roohist_data_mass_boosted_cat1'
p159
aF0.02734643118836747
aF0.02667425076864189
aF0.029083864761275405
aF0.027682124091531892
ag139
ag139
aF7.124252726826256e-08
aF6.130572595621344e-08
aF1.389526109162001e-07
aF1.4288431768122038e-07
ag139
ag139
aF0.02734643118836747
aF0.02667425076864189
aF0.029083864761275405
aF0.027682124091531892
ag139
ag139
aF0.028054557588879207
aF0.027777599982557664
aF0.02986488979655743
aF0.028418002145778134
ag139
ag139
aF0.026647868587613883
aF0.025595006423973544
aF0.028314108645534755
aF0.026956490323872446
ag139
ag139
aF0.028625463022588418
aF0.02778955792524543
aF0.030310668815249235
aF0.02885269290167582
ag139
ag139
aF0.026096644367611953
aF0.025581823730773272
aF0.027882413909075615
aF0.026535799330640906
ag139
ag139
aF0.027378630650551454
aF0.026729147519677515
aF0.029124239351798496
aF0.027720888634385796
ag139
ag139
aF0.02731425542921848
aF0.026619418989352613
aF0.029043522258766986
aF0.0276433899387312
ag139
ag139
aF0.027403015471953618
aF0.026734204528338842
aF0.029142532600210172
aF0.02773875704227437
ag139
ag139
aF0.02728990645163816
aF0.026614360663134412
aF0.02902525636562938
aF0.027625549314830727
ag139
ag139
aF0.02734643118836747
aF0.026458143247469285
aF0.02892576563841471
aF0.027534245960484902
ag139
ag139
aF0.02734643118836747
aF0.026887965472853177
aF0.029241988369597995
aF0.027830215279428912
ag139
ag139
aF0.02729445537411774
aF0.026659492051921717
aF0.02920303050918656
aF0.02771179218613983
ag139
ag139
aF0.027403414518134692
aF0.026684497482318322
aF0.029005612527107736
aF0.027653612002125613
ag139
ag139
aF0.027187600481838298
aF0.02647284867298358
aF0.028984695037354815
aF0.02757877915322637
ag139
ag139
aF0.02749020684281841
aF0.02691164796997501
aF0.02931186556047675
aF0.027898920621672756
ag139
ag139
aF0.02798995488371264
aF0.027281618239603088
aF0.030044789790161872
aF0.028598555381471262
ag139
ag139
aF0.02626777211751385
aF0.02565231663587156
aF0.02764431803221505
aF0.026276316587825577
ag139
ag139
aF0.027182027090291893
aF0.02651641573700873
aF0.028693943977165414
aF0.02723197476741685
ag139
ag139
aF0.02748968673400147
aF0.026804654201406902
aF0.02940462213655989
aF0.028057991779537075
ag139
ag139
aF0.027158944858788454
aF0.02645786873761286
aF0.028714539444982357
aF0.027268841772621864
ag139
ag139
aF0.027531370796668637
aF0.026887332643762862
aF0.029428761306890237
aF0.02807772425624
ag139
ag139
aF0.027383239703573425
aF0.026729054422336133
aF0.02912331690452191
aF0.027727133975891067
ag139
ag139
aF0.027304538322654188
aF0.026614139270845612
aF0.029039147136260084
aF0.027632796958851742
ag139
ag139
aF0.02736040992015089
aF0.02669911222409756
aF0.029102285856443286
aF0.027700732551257372
ag139
ag139
aF0.02733008983103336
aF0.026647946837476538
aF0.029062528095285575
aF0.027661342816907557
ag139
ag139
aF0.02711470635733812
aF0.026434006269742873
aF0.028701510620852924
aF0.02738974927516525
ag139
ag139
aF0.027585172104462454
aF0.026905307474606007
aF0.029470814185776708
aF0.027974496249388824
ag139
ag139
aF0.027333510180875223
aF0.026659887036460557
aF0.029035716130147764
aF0.027650040433559068
ag139
ag139
aF0.02736123311465258
aF0.026687942020627325
aF0.029130322308819952
aF0.027712151275225774
ag139
ag139
aF0.027309405090411507
aF0.026637531326131725
aF0.028990442756368504
aF0.02761711089610682
ag139
ag139
aF0.027387361594692027
aF0.02671199630858448
aF0.029179572605585798
aF0.027747977501598665
ag139
ag139
aF0.02732085288710364
aF0.026662737570229182
aF0.029074620207849244
aF0.027664931967758512
ag139
ag139
aF0.027349299008435485
aF0.026685778282288183
aF0.029076662037712888
aF0.027683917992367912
ag139
ag139
aF0.027326929872900075
aF0.026669896799734708
aF0.0290765538336917
aF0.027664015222907814
ag139
ag139
aF0.02733783895115253
aF0.02667291581679345
aF0.02908110905628479
aF0.02767392013299385
ag139
ag139
aF0.02717282617739784
aF0.02643727078569728
aF0.028780345863081876
aF0.02739265291636695
ag139
ag139
aF0.027200431161345767
aF0.02644629617206307
aF0.028775875399776874
aF0.0274171111465755
ag139
ag139
aF0.027211108389660642
aF0.026461638708324183
aF0.028796094561765958
aF0.027458181087076657
ag139
ag139
aF0.027142846170896195
aF0.026417228033252374
aF0.028725278179331994
aF0.027387710267804236
ag139
ag139
aF0.027188891664495028
aF0.026674250768641786
aF0.029083864761275464
aF0.027682124091532017
ag139
ag139
aF0.027174091603609386
aF0.026674250768641786
aF0.029083864761275464
aF0.027682124091532017
ag139
ag139
aF0.02732859688152871
aF0.026674250768641786
aF0.029083864761275464
aF0.027682124091532017
ag139
ag139
aF0.027330287974486923
aF0.026674250768641786
aF0.029083864761275464
aF0.027682124091532017
ag139
ag139
atp160
ba(lp161
g15
(g16
(dp162
g18
g19
(g20
(I0
tp163
g22
tp164
Rp165
(I1
(I1
tp166
g29
I00
(lp167
g43
atp168
bsg90
Nstp169
Rp170
ag15
(g16
(dp171
g18
g19
(g20
(I0
tp172
g22
tp173
Rp174
(I1
(I55
tp175
g29
I00
(lp176
g33
ag34
ag35
ag36
ag37
ag38
ag39
ag40
ag41
ag42
ag44
ag45
ag46
ag47
ag48
ag49
ag50
ag51
ag52
ag53
ag54
ag55
ag56
ag57
ag58
ag59
ag60
ag61
ag62
ag63
ag64
ag65
ag66
ag67
ag68
ag69
ag70
ag71
ag72
ag73
ag74
ag75
ag76
ag77
ag78
ag79
ag80
ag81
ag82
ag83
ag84
ag85
ag86
ag87
ag88
atp177
bsg90
Nstp178
Rp179
a(dp180
S'0.14.1'
p181
(dp182
S'axes'
p183
g14
sS'blocks'
p184
(lp185
(dp186
S'mgr_locs'
p187
c__builtin__
slice
p188
(I10
I11
I1
tp189
Rp190
sS'values'
p191
g111
sa(dp192
g187
g19
(g20
(I0
tp193
g22
tp194
Rp195
(I1
(I55
tp196
g101
I00
S'\x00\x00\x00\x00\x00\x00\x00\x00\x01\x00\x00\x00\x00\x00\x00\x00\x02\x00\x00\x00\x00\x00\x00\x00\x03\x00\x00\x00\x00\x00\x00\x00\x04\x00\x00\x00\x00\x00\x00\x00\x05\x00\x00\x00\x00\x00\x00\x00\x06\x00\x00\x00\x00\x00\x00\x00\x07\x00\x00\x00\x00\x00\x00\x00\x08\x00\x00\x00\x00\x00\x00\x00\t\x00\x00\x00\x00\x00\x00\x00\x0b\x00\x00\x00\x00\x00\x00\x00\x0c\x00\x00\x00\x00\x00\x00\x00\r\x00\x00\x00\x00\x00\x00\x00\x0e\x00\x00\x00\x00\x00\x00\x00\x0f\x00\x00\x00\x00\x00\x00\x00\x10\x00\x00\x00\x00\x00\x00\x00\x11\x00\x00\x00\x00\x00\x00\x00\x12\x00\x00\x00\x00\x00\x00\x00\x13\x00\x00\x00\x00\x00\x00\x00\x14\x00\x00\x00\x00\x00\x00\x00\x15\x00\x00\x00\x00\x00\x00\x00\x16\x00\x00\x00\x00\x00\x00\x00\x17\x00\x00\x00\x00\x00\x00\x00\x18\x00\x00\x00\x00\x00\x00\x00\x19\x00\x00\x00\x00\x00\x00\x00\x1a\x00\x00\x00\x00\x00\x00\x00\x1b\x00\x00\x00\x00\x00\x00\x00\x1c\x00\x00\x00\x00\x00\x00\x00\x1d\x00\x00\x00\x00\x00\x00\x00\x1e\x00\x00\x00\x00\x00\x00\x00\x1f\x00\x00\x00\x00\x00\x00\x00 \x00\x00\x00\x00\x00\x00\x00!\x00\x00\x00\x00\x00\x00\x00"\x00\x00\x00\x00\x00\x00\x00#\x00\x00\x00\x00\x00\x00\x00$\x00\x00\x00\x00\x00\x00\x00%\x00\x00\x00\x00\x00\x00\x00&\x00\x00\x00\x00\x00\x00\x00\'\x00\x00\x00\x00\x00\x00\x00(\x00\x00\x00\x00\x00\x00\x00)\x00\x00\x00\x00\x00\x00\x00*\x00\x00\x00\x00\x00\x00\x00+\x00\x00\x00\x00\x00\x00\x00,\x00\x00\x00\x00\x00\x00\x00-\x00\x00\x00\x00\x00\x00\x00.\x00\x00\x00\x00\x00\x00\x00/\x00\x00\x00\x00\x00\x00\x000\x00\x00\x00\x00\x00\x00\x001\x00\x00\x00\x00\x00\x00\x002\x00\x00\x00\x00\x00\x00\x003\x00\x00\x00\x00\x00\x00\x004\x00\x00\x00\x00\x00\x00\x005\x00\x00\x00\x00\x00\x00\x006\x00\x00\x00\x00\x00\x00\x007\x00\x00\x00\x00\x00\x00\x00'
p197
tp198
bsg191
g122
sasstp199
bsb.