ccopy_reg
_reconstructor
p0
(cpandas.core.frame
DataFrame
p1
c__builtin__
object
p2
Ntp3
Rp4
(dp5
S'_metadata'
p6
(lp7
sS'_typ'
p8
S'dataframe'
p9
sS'_data'
p10
g0
(cpandas.core.internals
BlockManager
p11
g2
Ntp12
Rp13
((lp14
cpandas.core.indexes.base
_new_Index
p15
(cpandas.core.indexes.base
Index
p16
(dp17
S'data'
p18
cnumpy.core.multiarray
_reconstruct
p19
(cnumpy
ndarray
p20
(I0
tp21
S'b'
p22
tp23
Rp24
(I1
(I56
tp25
cnumpy
dtype
p26
(S'O8'
p27
I0
I1
tp28
Rp29
(I3
S'|'
p30
NNNI-1
I-1
I63
tp31
bI00
(lp32
S'year'
p33
aS'type'
p34
aS'procOriginal'
p35
aS'proc'
p36
aS'proc_s0'
p37
aS'cat'
p38
aS'inputWSFile'
p39
aS'nominalDataName'
p40
aS'modelWSFile'
p41
aS'model'
p42
aS'rate'
p43
aS'nominal_yield'
p44
aS'sumw2'
p45
aS'nominal_yield_COWCorr'
p46
aS'photon_id_sf_Diphoton_Photon__up_yield'
p47
aS'photon_id_sf_Diphoton_Photon__down_yield'
p48
aS'photon_presel_sf_Diphoton_Photon__up_yield'
p49
aS'photon_presel_sf_Diphoton_Photon__down_yield'
p50
aS'electron_veto_sf_Diphoton_Photon__up_yield'
p51
aS'electron_veto_sf_Diphoton_Photon__down_yield'
p52
aS'trigger_sf__up_yield'
p53
aS'trigger_sf__down_yield'
p54
aS'L1_prefiring_sf__up_yield'
p55
aS'L1_prefiring_sf__down_yield'
p56
aS'puWeight__up_yield'
p57
aS'puWeight__down_yield'
p58
aS'btag_deepjet_sf_SelectedbJet_jes__up_yield'
p59
aS'btag_deepjet_sf_SelectedbJet_jes__down_yield'
p60
aS'btag_deepjet_sf_SelectedbJet_lf__up_yield'
p61
aS'btag_deepjet_sf_SelectedbJet_lf__down_yield'
p62
aS'btag_deepjet_sf_SelectedbJet_hfstats1__up_yield'
p63
aS'btag_deepjet_sf_SelectedbJet_hfstats1__down_yield'
p64
aS'btag_deepjet_sf_SelectedbJet_hfstats2__up_yield'
p65
aS'btag_deepjet_sf_SelectedbJet_hfstats2__down_yield'
p66
aS'btag_deepjet_sf_SelectedbJet_cferr1__up_yield'
p67
aS'btag_deepjet_sf_SelectedbJet_cferr1__down_yield'
p68
aS'btag_deepjet_sf_SelectedbJet_cferr2__up_yield'
p69
aS'btag_deepjet_sf_SelectedbJet_cferr2__down_yield'
p70
aS'btag_deepjet_sf_SelectedbJet_hf__up_yield'
p71
aS'btag_deepjet_sf_SelectedbJet_hf__down_yield'
p72
aS'btag_deepjet_sf_SelectedbJet_lfstats1__up_yield'
p73
aS'btag_deepjet_sf_SelectedbJet_lfstats1__down_yield'
p74
aS'btag_deepjet_sf_SelectedbJet_lfstats2__up_yield'
p75
aS'btag_deepjet_sf_SelectedbJet_lfstats2__down_yield'
p76
aS'JES_up_yield'
p77
aS'JES_down_yield'
p78
aS'JER_up_yield'
p79
aS'JER_down_yield'
p80
aS'FJER_up_yield'
p81
aS'FJER_down_yield'
p82
aS'FJES_up_yield'
p83
aS'FJES_down_yield'
p84
aS'FJHEM_up_yield'
p85
aS'FJHEM_down_yield'
p86
aS'JetHEM_up_yield'
p87
aS'JetHEM_down_yield'
p88
atp89
bsS'name'
p90
Nstp91
Rp92
ag15
(cpandas.core.indexes.numeric
Int64Index
p93
(dp94
g18
g19
(g20
(I0
tp95
g22
tp96
Rp97
(I1
(I6
tp98
g26
(S'i8'
p99
I0
I1
tp100
Rp101
(I3
S'<'
p102
NNNI-1
I-1
I0
tp103
bI00
S'\x00\x00\x00\x00\x00\x00\x00\x00\x01\x00\x00\x00\x00\x00\x00\x00\x02\x00\x00\x00\x00\x00\x00\x00\x03\x00\x00\x00\x00\x00\x00\x00\x04\x00\x00\x00\x00\x00\x00\x00\x05\x00\x00\x00\x00\x00\x00\x00'
p104
tp105
bsg90
Nstp106
Rp107
a(lp108
g19
(g20
(I0
tp109
g22
tp110
Rp111
(I1
(I1
I6
tp112
g26
(S'f8'
p113
I0
I1
tp114
Rp115
(I3
S'<'
p116
NNNI-1
I-1
I0
tp117
bI00
S'\x00\x00\x00\x00\xc06\xed@\x00\x00\x00\x00\x00A\xe4@\x00\x00\x00\x00\x00\x06\xd3@\x00\x00\x00\x00\x00^\xd0@\x00\x00\x00\x00\x00\x00\xf0?\x00\x00\x00\x00\x00\x00\xf0\xbf'
p118
tp119
bag19
(g20
(I0
tp120
g22
tp121
Rp122
(I1
(I55
I6
tp123
g29
I00
(lp124
S'2018'
p125
aS'2017'
p126
aS'2016pre'
p127
aS'2016post'
p128
aS'merged'
p129
ag129
aS'sig'
p130
ag130
ag130
ag130
aS'bkg'
p131
ag18
aS'gghh'
p132
ag132
ag132
ag132
aS'bkg_mass'
p133
aS'data_obs'
p134
aS'gghh_2018_hgg'
p135
aS'gghh_2017_hgg'
p136
aS'gghh_2016pre_hgg'
p137
aS'gghh_2016post_hgg'
p138
ag133
ag134
ag132
ag132
ag132
ag132
aS'-'
p139
ag139
aS'resolved_cat4'
p140
ag140
ag140
ag140
ag140
ag140
aS'/eos/cms/store/group/phys_higgs/cmshgg/zhjie/output/output_1000/opt_morecat/2018/root/addsys/ws_gghh_cat4_150/output_NMSSM_XToYHTo2B2G_MX-1000_MY-150_cat4_2018_M125_pythia8_gghh.root'
p141
aS'/eos/cms/store/group/phys_higgs/cmshgg/zhjie/output/output_1000/opt_morecat/2017/root/addsys/ws_gghh_cat4_150/output_NMSSM_XToYHTo2B2G_MX-1000_MY-150_cat4_2017_M125_pythia8_gghh.root'
p142
aS'/eos/cms/store/group/phys_higgs/cmshgg/zhjie/output/output_1000/opt_morecat/2016pre/root/addsys/ws_gghh_cat4_150/output_NMSSM_XToYHTo2B2G_MX-1000_MY-150_cat4_2016pre_M125_pythia8_gghh.root'
p143
aS'/eos/cms/store/group/phys_higgs/cmshgg/zhjie/output/output_1000/opt_morecat/2016post/root/addsys/ws_gghh_cat4_150/output_NMSSM_XToYHTo2B2G_MX-1000_MY-150_cat4_2016post_M125_pythia8_gghh.root'
p144
ag139
ag139
aS'gghh_125_13TeV_resolved_cat4'
p145
aS'gghh_125_13TeV_resolved_cat4'
p146
aS'gghh_125_13TeV_resolved_cat4'
p147
aS'gghh_125_13TeV_resolved_cat4'
p148
ag139
ag139
aS'/eos/user/z/zhjie/CMSSW_10_2_13/src/flashggFinalFit/Signal/outdir_packaged_mergeyears_1000_M150_cat4/CMS-HGG_sigfit_packaged_resolved_cat4.root'
p149
aS'/eos/user/z/zhjie/CMSSW_10_2_13/src/flashggFinalFit/Signal/outdir_packaged_mergeyears_1000_M150_cat4/CMS-HGG_sigfit_packaged_resolved_cat4.root'
p150
aS'/eos/user/z/zhjie/CMSSW_10_2_13/src/flashggFinalFit/Signal/outdir_packaged_mergeyears_1000_M150_cat4/CMS-HGG_sigfit_packaged_resolved_cat4.root'
p151
aS'/eos/user/z/zhjie/CMSSW_10_2_13/src/flashggFinalFit/Signal/outdir_packaged_mergeyears_1000_M150_cat4/CMS-HGG_sigfit_packaged_resolved_cat4.root'
p152
aS'/eos/cms/store/group/phys_higgs/cmshgg/zhjie/output/output_1000/opt_morecat/data/root/ws_cat4_150/CMS-HGG_multipdf_resolved_cat4.root'
p153
ag153
aS'wsig_13TeV:hggpdfsmrel_gghh_2018_resolved_cat4_13TeV'
p154
aS'wsig_13TeV:hggpdfsmrel_gghh_2017_resolved_cat4_13TeV'
p155
aS'wsig_13TeV:hggpdfsmrel_gghh_2016pre_resolved_cat4_13TeV'
p156
aS'wsig_13TeV:hggpdfsmrel_gghh_2016post_resolved_cat4_13TeV'
p157
aS'multipdf:CMS_hgg_resolved_cat4_13TeV_bkgshape'
p158
aS'multipdf:roohist_data_mass_resolved_cat4'
p159
aF0.001676130467923636
aF0.0012535311892394965
aF0.0011153270773953444
aF0.0011949988930524545
ag139
ag139
aF4.767452001715623e-09
aF3.3023983716829052e-09
aF5.73003555951336e-09
aF7.071615042825211e-09
ag139
ag139
aF0.001676130467923636
aF0.0012535311892394965
aF0.0011153270773953444
aF0.0011949988930524545
ag139
ag139
aF0.0017134430439573766
aF0.0013027970036221584
aF0.0011431895089798292
aF0.0012188611298619514
ag139
ag139
aF0.0016392188880180666
aF0.001205136455859465
aF0.0010877834599293222
aF0.0011713557454126823
ag139
ag139
aF0.0017523867753136066
aF0.0013019997791363083
aF0.0011607187490830096
aF0.0012439201744440988
ag139
ag139
aF0.001601571957969983
aF0.0012059869171399777
aF0.001070841421182301
aF0.0011470592648367122
ag139
ag139
aF0.0016799111895420436
aF0.0012581828441865363
aF0.001118275252048774
aF0.0011983133901296774
ag139
ag139
aF0.0016723545248795836
aF0.001248888844917383
aF0.001112382864867302
aF0.0011916890795198728
ag139
ag139
aF0.0016801035573084076
aF0.0012570510825403182
aF0.001117974900374893
aF0.0011975706822645864
ag139
ag139
aF0.0016721620598452805
aF0.0012500160742739146
aF0.0011126823326727078
aF0.00119242987058847
ag139
ag139
aF0.001676130467923636
aF0.001222889338997988
aF0.001095980902084602
aF0.00117504828189108
ag139
ag139
aF0.001676130467923636
aF0.0012845008138229078
aF0.0011347840539701756
aF0.0012151031311467113
ag139
ag139
aF0.001676494410868632
aF0.0012598091829486156
aF0.0011363719017942696
aF0.0012150378356606405
ag139
ag139
aF0.0016768033189676706
aF0.001246963677304656
aF0.0010958425382480005
aF0.0011715193986957231
ag139
ag139
aF0.0016638684124957055
aF0.001247591623442557
aF0.0011097904522307516
aF0.0011893393208565553
ag139
ag139
aF0.0016883016625544372
aF0.00126100617710325
aF0.0011203604780179186
aF0.0011955114283942316
ag139
ag139
aF0.0016570561180582746
aF0.0012328586583968027
aF0.0010950972225633158
aF0.0011854092763218724
ag139
ag139
aF0.0016749673528521287
aF0.0012602389029929197
aF0.0011231510112446144
aF0.0011906379195452499
ag139
ag139
aF0.0016890464584920926
aF0.0012652799214186963
aF0.0011347327350634587
aF0.0012085675102193904
ag139
ag139
aF0.001662920211776623
aF0.0012410350199792868
aF0.0010957765509236202
aF0.0011802172820995578
ag139
ag139
aF0.0016643376058219845
aF0.0012434097433704156
aF0.0011003550571048175
aF0.0011806028723442157
ag139
ag139
aF0.0016881713763790848
aF0.0012633799869398946
aF0.0011301753957732882
aF0.001209185954174504
ag139
ag139
aF0.001695053109072574
aF0.0012666548295283957
aF0.0011245143130071765
aF0.001207055687674254
ag139
ag139
aF0.0016555986386834413
aF0.0012389056607054062
aF0.0011046039839359334
aF0.0011816111268639529
ag139
ag139
aF0.0016859538959164097
aF0.0012572227368496897
aF0.0011179558642344129
aF0.0011987929571531425
ag139
ag139
aF0.0016654906167654078
aF0.0012491146552262172
aF0.0011117255879338583
aF0.0011905836126209846
ag139
ag139
aF0.001626591503446761
aF0.001212192666339624
aF0.0010799820261091202
aF0.0011548259730403353
ag139
ag139
aF0.0017272572477200069
aF0.0012932395324955122
aF0.0011506823049675149
aF0.0012329416354056367
ag139
ag139
aF0.0016796605920344216
aF0.0012543198191725278
aF0.001113115539263098
aF0.0011949045422158435
ag139
ag139
aF0.0016724734657554113
aF0.0012523892264708913
aF0.0011171989650359275
aF0.0011944443968097786
ag139
ag139
aF0.001673061935579295
aF0.0012484392864461026
aF0.0011072775965955167
aF0.0011887285483532218
ag139
ag139
aF0.001679625979324322
aF0.0012587631760046872
aF0.0011234520307379203
aF0.0012011440688170028
ag139
ag139
aF0.001769613914791731
aF0.0013130642878048172
aF0.0011008676694769142
aF0.0012626009957127627
ag139
ag139
aF0.0017278537151283534
aF0.0013043191411332897
aF0.0010176026792036307
aF0.0012333284338021265
ag139
ag139
aF0.0017715791481760859
aF0.0013282363098669437
aF0.0010649661285759362
aF0.0012193417569688026
ag139
ag139
aF0.0017202221692341518
aF0.0012924139263936238
aF0.0010959765961828596
aF0.0012367970572718183
ag139
ag139
aF0.0016921358202002389
aF0.001268254843900562
aF0.0011219771363175648
aF0.0012062606381885467
ag139
ag139
aF0.0016921358202002389
aF0.0012662792832131527
aF0.0011219771363175648
aF0.0012062606381885467
ag139
ag139
aF0.0016921358202002389
aF0.001264250940530528
aF0.0011219771363175648
aF0.0012062606381885467
ag139
ag139
aF0.0016921358202002389
aF0.0012662792832131527
aF0.0011219771363175648
aF0.0012062606381885467
ag139
ag139
aF0.0016921358202002389
aF0.001253531189239497
aF0.0011153270773953446
aF0.001194998893052455
ag139
ag139
aF0.0016921358202002389
aF0.001253531189239497
aF0.0011153270773953446
aF0.001194998893052455
ag139
ag139
aF0.0017546928616586307
aF0.001253531189239497
aF0.0011153270773953446
aF0.001194998893052455
ag139
ag139
aF0.00171798066637154
aF0.001253531189239497
aF0.0011153270773953446
aF0.001194998893052455
ag139
ag139
atp160
ba(lp161
g15
(g16
(dp162
g18
g19
(g20
(I0
tp163
g22
tp164
Rp165
(I1
(I1
tp166
g29
I00
(lp167
g43
atp168
bsg90
Nstp169
Rp170
ag15
(g16
(dp171
g18
g19
(g20
(I0
tp172
g22
tp173
Rp174
(I1
(I55
tp175
g29
I00
(lp176
g33
ag34
ag35
ag36
ag37
ag38
ag39
ag40
ag41
ag42
ag44
ag45
ag46
ag47
ag48
ag49
ag50
ag51
ag52
ag53
ag54
ag55
ag56
ag57
ag58
ag59
ag60
ag61
ag62
ag63
ag64
ag65
ag66
ag67
ag68
ag69
ag70
ag71
ag72
ag73
ag74
ag75
ag76
ag77
ag78
ag79
ag80
ag81
ag82
ag83
ag84
ag85
ag86
ag87
ag88
atp177
bsg90
Nstp178
Rp179
a(dp180
S'0.14.1'
p181
(dp182
S'axes'
p183
g14
sS'blocks'
p184
(lp185
(dp186
S'mgr_locs'
p187
c__builtin__
slice
p188
(I10
I11
I1
tp189
Rp190
sS'values'
p191
g111
sa(dp192
g187
g19
(g20
(I0
tp193
g22
tp194
Rp195
(I1
(I55
tp196
g101
I00
S'\x00\x00\x00\x00\x00\x00\x00\x00\x01\x00\x00\x00\x00\x00\x00\x00\x02\x00\x00\x00\x00\x00\x00\x00\x03\x00\x00\x00\x00\x00\x00\x00\x04\x00\x00\x00\x00\x00\x00\x00\x05\x00\x00\x00\x00\x00\x00\x00\x06\x00\x00\x00\x00\x00\x00\x00\x07\x00\x00\x00\x00\x00\x00\x00\x08\x00\x00\x00\x00\x00\x00\x00\t\x00\x00\x00\x00\x00\x00\x00\x0b\x00\x00\x00\x00\x00\x00\x00\x0c\x00\x00\x00\x00\x00\x00\x00\r\x00\x00\x00\x00\x00\x00\x00\x0e\x00\x00\x00\x00\x00\x00\x00\x0f\x00\x00\x00\x00\x00\x00\x00\x10\x00\x00\x00\x00\x00\x00\x00\x11\x00\x00\x00\x00\x00\x00\x00\x12\x00\x00\x00\x00\x00\x00\x00\x13\x00\x00\x00\x00\x00\x00\x00\x14\x00\x00\x00\x00\x00\x00\x00\x15\x00\x00\x00\x00\x00\x00\x00\x16\x00\x00\x00\x00\x00\x00\x00\x17\x00\x00\x00\x00\x00\x00\x00\x18\x00\x00\x00\x00\x00\x00\x00\x19\x00\x00\x00\x00\x00\x00\x00\x1a\x00\x00\x00\x00\x00\x00\x00\x1b\x00\x00\x00\x00\x00\x00\x00\x1c\x00\x00\x00\x00\x00\x00\x00\x1d\x00\x00\x00\x00\x00\x00\x00\x1e\x00\x00\x00\x00\x00\x00\x00\x1f\x00\x00\x00\x00\x00\x00\x00 \x00\x00\x00\x00\x00\x00\x00!\x00\x00\x00\x00\x00\x00\x00"\x00\x00\x00\x00\x00\x00\x00#\x00\x00\x00\x00\x00\x00\x00$\x00\x00\x00\x00\x00\x00\x00%\x00\x00\x00\x00\x00\x00\x00&\x00\x00\x00\x00\x00\x00\x00\'\x00\x00\x00\x00\x00\x00\x00(\x00\x00\x00\x00\x00\x00\x00)\x00\x00\x00\x00\x00\x00\x00*\x00\x00\x00\x00\x00\x00\x00+\x00\x00\x00\x00\x00\x00\x00,\x00\x00\x00\x00\x00\x00\x00-\x00\x00\x00\x00\x00\x00\x00.\x00\x00\x00\x00\x00\x00\x00/\x00\x00\x00\x00\x00\x00\x000\x00\x00\x00\x00\x00\x00\x001\x00\x00\x00\x00\x00\x00\x002\x00\x00\x00\x00\x00\x00\x003\x00\x00\x00\x00\x00\x00\x004\x00\x00\x00\x00\x00\x00\x005\x00\x00\x00\x00\x00\x00\x006\x00\x00\x00\x00\x00\x00\x007\x00\x00\x00\x00\x00\x00\x00'
p197
tp198
bsg191
g122
sasstp199
bsb.