ccopy_reg
_reconstructor
p0
(cpandas.core.frame
DataFrame
p1
c__builtin__
object
p2
Ntp3
Rp4
(dp5
S'_metadata'
p6
(lp7
sS'_typ'
p8
S'dataframe'
p9
sS'_data'
p10
g0
(cpandas.core.internals
BlockManager
p11
g2
Ntp12
Rp13
((lp14
cpandas.core.indexes.base
_new_Index
p15
(cpandas.core.indexes.base
Index
p16
(dp17
S'data'
p18
cnumpy.core.multiarray
_reconstruct
p19
(cnumpy
ndarray
p20
(I0
tp21
S'b'
p22
tp23
Rp24
(I1
(I56
tp25
cnumpy
dtype
p26
(S'O8'
p27
I0
I1
tp28
Rp29
(I3
S'|'
p30
NNNI-1
I-1
I63
tp31
bI00
(lp32
S'year'
p33
aS'type'
p34
aS'procOriginal'
p35
aS'proc'
p36
aS'proc_s0'
p37
aS'cat'
p38
aS'inputWSFile'
p39
aS'nominalDataName'
p40
aS'modelWSFile'
p41
aS'model'
p42
aS'rate'
p43
aS'nominal_yield'
p44
aS'sumw2'
p45
aS'nominal_yield_COWCorr'
p46
aS'photon_id_sf_Diphoton_Photon__up_yield'
p47
aS'photon_id_sf_Diphoton_Photon__down_yield'
p48
aS'photon_presel_sf_Diphoton_Photon__up_yield'
p49
aS'photon_presel_sf_Diphoton_Photon__down_yield'
p50
aS'electron_veto_sf_Diphoton_Photon__up_yield'
p51
aS'electron_veto_sf_Diphoton_Photon__down_yield'
p52
aS'trigger_sf__up_yield'
p53
aS'trigger_sf__down_yield'
p54
aS'L1_prefiring_sf__up_yield'
p55
aS'L1_prefiring_sf__down_yield'
p56
aS'puWeight__up_yield'
p57
aS'puWeight__down_yield'
p58
aS'btag_deepjet_sf_SelectedbJet_jes__up_yield'
p59
aS'btag_deepjet_sf_SelectedbJet_jes__down_yield'
p60
aS'btag_deepjet_sf_SelectedbJet_lf__up_yield'
p61
aS'btag_deepjet_sf_SelectedbJet_lf__down_yield'
p62
aS'btag_deepjet_sf_SelectedbJet_hfstats1__up_yield'
p63
aS'btag_deepjet_sf_SelectedbJet_hfstats1__down_yield'
p64
aS'btag_deepjet_sf_SelectedbJet_hfstats2__up_yield'
p65
aS'btag_deepjet_sf_SelectedbJet_hfstats2__down_yield'
p66
aS'btag_deepjet_sf_SelectedbJet_cferr1__up_yield'
p67
aS'btag_deepjet_sf_SelectedbJet_cferr1__down_yield'
p68
aS'btag_deepjet_sf_SelectedbJet_cferr2__up_yield'
p69
aS'btag_deepjet_sf_SelectedbJet_cferr2__down_yield'
p70
aS'btag_deepjet_sf_SelectedbJet_hf__up_yield'
p71
aS'btag_deepjet_sf_SelectedbJet_hf__down_yield'
p72
aS'btag_deepjet_sf_SelectedbJet_lfstats1__up_yield'
p73
aS'btag_deepjet_sf_SelectedbJet_lfstats1__down_yield'
p74
aS'btag_deepjet_sf_SelectedbJet_lfstats2__up_yield'
p75
aS'btag_deepjet_sf_SelectedbJet_lfstats2__down_yield'
p76
aS'JES_up_yield'
p77
aS'JES_down_yield'
p78
aS'JER_up_yield'
p79
aS'JER_down_yield'
p80
aS'FJER_up_yield'
p81
aS'FJER_down_yield'
p82
aS'FJES_up_yield'
p83
aS'FJES_down_yield'
p84
aS'FJHEM_up_yield'
p85
aS'FJHEM_down_yield'
p86
aS'JetHEM_up_yield'
p87
aS'JetHEM_down_yield'
p88
atp89
bsS'name'
p90
Nstp91
Rp92
ag15
(cpandas.core.indexes.numeric
Int64Index
p93
(dp94
g18
g19
(g20
(I0
tp95
g22
tp96
Rp97
(I1
(I6
tp98
g26
(S'i8'
p99
I0
I1
tp100
Rp101
(I3
S'<'
p102
NNNI-1
I-1
I0
tp103
bI00
S'\x00\x00\x00\x00\x00\x00\x00\x00\x01\x00\x00\x00\x00\x00\x00\x00\x02\x00\x00\x00\x00\x00\x00\x00\x03\x00\x00\x00\x00\x00\x00\x00\x04\x00\x00\x00\x00\x00\x00\x00\x05\x00\x00\x00\x00\x00\x00\x00'
p104
tp105
bsg90
Nstp106
Rp107
a(lp108
g19
(g20
(I0
tp109
g22
tp110
Rp111
(I1
(I1
I6
tp112
g26
(S'f8'
p113
I0
I1
tp114
Rp115
(I3
S'<'
p116
NNNI-1
I-1
I0
tp117
bI00
S'\x00\x00\x00\x00\xc06\xed@\x00\x00\x00\x00\x00A\xe4@\x00\x00\x00\x00\x00\x06\xd3@\x00\x00\x00\x00\x00^\xd0@\x00\x00\x00\x00\x00\x00\xf0?\x00\x00\x00\x00\x00\x00\xf0\xbf'
p118
tp119
bag19
(g20
(I0
tp120
g22
tp121
Rp122
(I1
(I55
I6
tp123
g29
I00
(lp124
S'2018'
p125
aS'2017'
p126
aS'2016pre'
p127
aS'2016post'
p128
aS'merged'
p129
ag129
aS'sig'
p130
ag130
ag130
ag130
aS'bkg'
p131
ag18
aS'gghh'
p132
ag132
ag132
ag132
aS'bkg_mass'
p133
aS'data_obs'
p134
aS'gghh_2018_hgg'
p135
aS'gghh_2017_hgg'
p136
aS'gghh_2016pre_hgg'
p137
aS'gghh_2016post_hgg'
p138
ag133
ag134
ag132
ag132
ag132
ag132
aS'-'
p139
ag139
aS'boosted_cat1'
p140
ag140
ag140
ag140
ag140
ag140
aS'/eos/cms/store/group/phys_higgs/cmshgg/zhjie/output/output_2000_boost/opt/2018/root/addsys/ws_gghh_cat1_190/output_NMSSM_XToYHTo2B2G_MX-2000_MY-190_cat1_2018_M125_pythia8_gghh.root'
p141
aS'/eos/cms/store/group/phys_higgs/cmshgg/zhjie/output/output_2000_boost/opt/2017/root/addsys/ws_gghh_cat1_190/output_NMSSM_XToYHTo2B2G_MX-2000_MY-190_cat1_2017_M125_pythia8_gghh.root'
p142
aS'/eos/cms/store/group/phys_higgs/cmshgg/zhjie/output/output_2000_boost/opt/2016pre/root/addsys/ws_gghh_cat1_190/output_NMSSM_XToYHTo2B2G_MX-2000_MY-190_cat1_2016pre_M125_pythia8_gghh.root'
p143
aS'/eos/cms/store/group/phys_higgs/cmshgg/zhjie/output/output_2000_boost/opt/2016post/root/addsys/ws_gghh_cat1_190/output_NMSSM_XToYHTo2B2G_MX-2000_MY-190_cat1_2016post_M125_pythia8_gghh.root'
p144
ag139
ag139
aS'gghh_125_13TeV_boosted_cat1'
p145
aS'gghh_125_13TeV_boosted_cat1'
p146
aS'gghh_125_13TeV_boosted_cat1'
p147
aS'gghh_125_13TeV_boosted_cat1'
p148
ag139
ag139
aS'/eos/user/z/zhjie/CMSSW_10_2_13/src/flashggFinalFit/Signal/outdir_packaged_mergeyears_boost_masscut_2000_M190_cat1/CMS-HGG_sigfit_packaged_boosted_cat1.root'
p149
aS'/eos/user/z/zhjie/CMSSW_10_2_13/src/flashggFinalFit/Signal/outdir_packaged_mergeyears_boost_masscut_2000_M190_cat1/CMS-HGG_sigfit_packaged_boosted_cat1.root'
p150
aS'/eos/user/z/zhjie/CMSSW_10_2_13/src/flashggFinalFit/Signal/outdir_packaged_mergeyears_boost_masscut_2000_M190_cat1/CMS-HGG_sigfit_packaged_boosted_cat1.root'
p151
aS'/eos/user/z/zhjie/CMSSW_10_2_13/src/flashggFinalFit/Signal/outdir_packaged_mergeyears_boost_masscut_2000_M190_cat1/CMS-HGG_sigfit_packaged_boosted_cat1.root'
p152
aS'/eos/cms/store/group/phys_higgs/cmshgg/zhjie/output/output_1000_boost/opt/data/root/ws_cat1/CMS-HGG_multipdf_boosted_cat1.root'
p153
ag153
aS'wsig_13TeV:hggpdfsmrel_gghh_2018_boosted_cat1_13TeV'
p154
aS'wsig_13TeV:hggpdfsmrel_gghh_2017_boosted_cat1_13TeV'
p155
aS'wsig_13TeV:hggpdfsmrel_gghh_2016pre_boosted_cat1_13TeV'
p156
aS'wsig_13TeV:hggpdfsmrel_gghh_2016post_boosted_cat1_13TeV'
p157
aS'multipdf:CMS_hgg_boosted_cat1_13TeV_bkgshape'
p158
aS'multipdf:roohist_data_mass_boosted_cat1'
p159
aF0.09486230078750578
aF0.0960398704160048
aF0.0914861096700854
aF0.09063066245498602
ag139
ag139
aF3.263390562871358e-07
aF2.631346464907143e-07
aF4.5145111050352926e-07
aF5.080840458476687e-07
ag139
ag139
aF0.09486230078750578
aF0.0960398704160048
aF0.0914861096700854
aF0.09063066245498602
ag139
ag139
aF0.09732251440972696
aF0.10002217522718722
aF0.0939427072023404
aF0.09300549447667979
ag139
ag139
aF0.09243520780733226
aF0.09214403585970143
aF0.08906492351390796
aF0.0882887772436086
ag139
ag139
aF0.09929340573468287
aF0.10004671097061019
aF0.09534320332360242
aF0.09445894168688564
ag139
ag139
aF0.09053239906834516
aF0.09211508317865608
aF0.08770869622856464
aF0.08688158862168975
ag139
ag139
aF0.09497600934891906
aF0.09624004992961369
aF0.09161512300023625
aF0.09075806597304031
ag139
ag139
aF0.09474867786372684
aF0.09583993154020376
aF0.09135720063136936
aF0.09050336075358627
ag139
ag139
aF0.09505965801290736
aF0.0962574624522539
aF0.09167256030053603
aF0.09081538190936296
ag139
ag139
aF0.09466515242911082
aF0.09582251217032968
aF0.09129984982263534
aF0.0904461320594721
ag139
ag139
aF0.09486230078750578
aF0.09527802337737695
aF0.09103258720066539
aF0.09017691288007602
ag139
ag139
aF0.09486230078750578
aF0.0967936958100422
aF0.0919404174923479
aF0.09108480757279609
ag139
ag139
aF0.09474747660751971
aF0.09600246074031345
aF0.09194579945635135
aF0.09055394989984296
ag139
ag139
aF0.09491414163045962
aF0.09601327020169764
aF0.09106704366653641
aF0.09067005411638387
ag139
ag139
aF0.0944338327222869
aF0.09563837854663879
aF0.09135287575323889
aF0.09043205758756005
ag139
ag139
aF0.09527840853183045
aF0.09651045018677958
aF0.09184351863478031
aF0.09082630920873128
ag139
ag139
aF0.09462041534122086
aF0.09600325511077729
aF0.09169943945683291
aF0.09080872277649733
ag139
ag139
aF0.0937859524163709
aF0.09475463770142374
aF0.08991119004780673
aF0.08896848051712831
ag139
ag139
aF0.09497437191251543
aF0.09616966667882913
aF0.09154247059212485
aF0.09055730444277225
ag139
ag139
aF0.09469043167585414
aF0.09581835608351168
aF0.09128547276853244
aF0.09048802574771439
ag139
ag139
aF0.0941191546694448
aF0.09513258565304639
aF0.09020236581644074
aF0.08923296271454971
ag139
ag139
aF0.09560088767321637
aF0.09693325356678072
aF0.09273252246972696
aF0.09198323450470519
ag139
ag139
aF0.09519936916947469
aF0.096394089579888
aF0.09180263786894534
aF0.09097012725710511
ag139
ag139
aF0.09449557852793031
aF0.09565734569607288
aF0.09113851208291447
aF0.09025893124528053
ag139
ag139
aF0.09502653367636343
aF0.09619652996492295
aF0.09164548118139403
aF0.09080627901513674
ag139
ag139
aF0.09468403105370019
aF0.09587156829254756
aF0.0913073407908427
aF0.09043841808146491
ag139
ag139
aF0.09385014467867252
aF0.09489203113429363
aF0.0901765203472969
aF0.08948303033797318
ag139
ag139
aF0.0958699743837723
aF0.09710895788464972
aF0.09277092841130999
aF0.0917467340697489
ag139
ag139
aF0.09475110453344127
aF0.09592083578712693
aF0.09126468616977224
aF0.09043696680656901
ag139
ag139
aF0.09497714188825371
aF0.09615228776993205
aF0.09169945658277087
aF0.09081252466398204
ag139
ag139
aF0.09466116059137662
aF0.09582556149649454
aF0.09113034729805293
aF0.0903194093680786
ag139
ag139
aF0.0950768115854221
aF0.09625736527777703
aF0.09184666297452138
aF0.09094554703865668
ag139
ag139
aF0.09477920155024963
aF0.09592135475902665
aF0.09149746655052036
aF0.0905390695790667
ag139
ag139
aF0.09490901460562058
aF0.09601339354524374
aF0.09149089784745199
aF0.09065048927222212
ag139
ag139
aF0.09480513094281255
aF0.09593682631914792
aF0.09148488783893204
aF0.09057601351576576
ag139
ag139
aF0.09484888972628035
aF0.09600754265383439
aF0.09148582085471574
aF0.0906153946517012
ag139
ag139
aF0.09477208678539709
aF0.09592272316144704
aF0.0913684117062412
aF0.09055417553060255
ag139
ag139
aF0.09478730648045933
aF0.09594802464022135
aF0.0914089255315069
aF0.09056156873757672
ag139
ag139
aF0.0947961441603927
aF0.0959456147630817
aF0.09139091763244067
aF0.09056876351188908
ag139
ag139
aF0.09477037985926784
aF0.09592961203696117
aF0.09137044957840543
aF0.09054571847362353
ag139
ag139
aF0.0947787875352892
aF0.09603987041600474
aF0.09148610967008551
aF0.09063066245498655
ag139
ag139
aF0.09475990040561472
aF0.09603987041600474
aF0.09148610967008551
aF0.09063066245498655
ag139
ag139
aF0.0948242130756886
aF0.09603987041600474
aF0.09148610967008551
aF0.09063066245498655
ag139
ag139
aF0.09483249239750108
aF0.09603987041600474
aF0.09148610967008551
aF0.09063066245498655
ag139
ag139
atp160
ba(lp161
g15
(g16
(dp162
g18
g19
(g20
(I0
tp163
g22
tp164
Rp165
(I1
(I1
tp166
g29
I00
(lp167
g43
atp168
bsg90
Nstp169
Rp170
ag15
(g16
(dp171
g18
g19
(g20
(I0
tp172
g22
tp173
Rp174
(I1
(I55
tp175
g29
I00
(lp176
g33
ag34
ag35
ag36
ag37
ag38
ag39
ag40
ag41
ag42
ag44
ag45
ag46
ag47
ag48
ag49
ag50
ag51
ag52
ag53
ag54
ag55
ag56
ag57
ag58
ag59
ag60
ag61
ag62
ag63
ag64
ag65
ag66
ag67
ag68
ag69
ag70
ag71
ag72
ag73
ag74
ag75
ag76
ag77
ag78
ag79
ag80
ag81
ag82
ag83
ag84
ag85
ag86
ag87
ag88
atp177
bsg90
Nstp178
Rp179
a(dp180
S'0.14.1'
p181
(dp182
S'axes'
p183
g14
sS'blocks'
p184
(lp185
(dp186
S'mgr_locs'
p187
c__builtin__
slice
p188
(I10
I11
I1
tp189
Rp190
sS'values'
p191
g111
sa(dp192
g187
g19
(g20
(I0
tp193
g22
tp194
Rp195
(I1
(I55
tp196
g101
I00
S'\x00\x00\x00\x00\x00\x00\x00\x00\x01\x00\x00\x00\x00\x00\x00\x00\x02\x00\x00\x00\x00\x00\x00\x00\x03\x00\x00\x00\x00\x00\x00\x00\x04\x00\x00\x00\x00\x00\x00\x00\x05\x00\x00\x00\x00\x00\x00\x00\x06\x00\x00\x00\x00\x00\x00\x00\x07\x00\x00\x00\x00\x00\x00\x00\x08\x00\x00\x00\x00\x00\x00\x00\t\x00\x00\x00\x00\x00\x00\x00\x0b\x00\x00\x00\x00\x00\x00\x00\x0c\x00\x00\x00\x00\x00\x00\x00\r\x00\x00\x00\x00\x00\x00\x00\x0e\x00\x00\x00\x00\x00\x00\x00\x0f\x00\x00\x00\x00\x00\x00\x00\x10\x00\x00\x00\x00\x00\x00\x00\x11\x00\x00\x00\x00\x00\x00\x00\x12\x00\x00\x00\x00\x00\x00\x00\x13\x00\x00\x00\x00\x00\x00\x00\x14\x00\x00\x00\x00\x00\x00\x00\x15\x00\x00\x00\x00\x00\x00\x00\x16\x00\x00\x00\x00\x00\x00\x00\x17\x00\x00\x00\x00\x00\x00\x00\x18\x00\x00\x00\x00\x00\x00\x00\x19\x00\x00\x00\x00\x00\x00\x00\x1a\x00\x00\x00\x00\x00\x00\x00\x1b\x00\x00\x00\x00\x00\x00\x00\x1c\x00\x00\x00\x00\x00\x00\x00\x1d\x00\x00\x00\x00\x00\x00\x00\x1e\x00\x00\x00\x00\x00\x00\x00\x1f\x00\x00\x00\x00\x00\x00\x00 \x00\x00\x00\x00\x00\x00\x00!\x00\x00\x00\x00\x00\x00\x00"\x00\x00\x00\x00\x00\x00\x00#\x00\x00\x00\x00\x00\x00\x00$\x00\x00\x00\x00\x00\x00\x00%\x00\x00\x00\x00\x00\x00\x00&\x00\x00\x00\x00\x00\x00\x00\'\x00\x00\x00\x00\x00\x00\x00(\x00\x00\x00\x00\x00\x00\x00)\x00\x00\x00\x00\x00\x00\x00*\x00\x00\x00\x00\x00\x00\x00+\x00\x00\x00\x00\x00\x00\x00,\x00\x00\x00\x00\x00\x00\x00-\x00\x00\x00\x00\x00\x00\x00.\x00\x00\x00\x00\x00\x00\x00/\x00\x00\x00\x00\x00\x00\x000\x00\x00\x00\x00\x00\x00\x001\x00\x00\x00\x00\x00\x00\x002\x00\x00\x00\x00\x00\x00\x003\x00\x00\x00\x00\x00\x00\x004\x00\x00\x00\x00\x00\x00\x005\x00\x00\x00\x00\x00\x00\x006\x00\x00\x00\x00\x00\x00\x007\x00\x00\x00\x00\x00\x00\x00'
p197
tp198
bsg191
g122
sasstp199
bsb.