ccopy_reg
_reconstructor
p0
(cpandas.core.frame
DataFrame
p1
c__builtin__
object
p2
Ntp3
Rp4
(dp5
S'_metadata'
p6
(lp7
sS'_typ'
p8
S'dataframe'
p9
sS'_data'
p10
g0
(cpandas.core.internals
BlockManager
p11
g2
Ntp12
Rp13
((lp14
cpandas.core.indexes.base
_new_Index
p15
(cpandas.core.indexes.base
Index
p16
(dp17
S'data'
p18
cnumpy.core.multiarray
_reconstruct
p19
(cnumpy
ndarray
p20
(I0
tp21
S'b'
p22
tp23
Rp24
(I1
(I56
tp25
cnumpy
dtype
p26
(S'O8'
p27
I0
I1
tp28
Rp29
(I3
S'|'
p30
NNNI-1
I-1
I63
tp31
bI00
(lp32
S'year'
p33
aS'type'
p34
aS'procOriginal'
p35
aS'proc'
p36
aS'proc_s0'
p37
aS'cat'
p38
aS'inputWSFile'
p39
aS'nominalDataName'
p40
aS'modelWSFile'
p41
aS'model'
p42
aS'rate'
p43
aS'nominal_yield'
p44
aS'sumw2'
p45
aS'nominal_yield_COWCorr'
p46
aS'photon_id_sf_Diphoton_Photon__up_yield'
p47
aS'photon_id_sf_Diphoton_Photon__down_yield'
p48
aS'photon_presel_sf_Diphoton_Photon__up_yield'
p49
aS'photon_presel_sf_Diphoton_Photon__down_yield'
p50
aS'electron_veto_sf_Diphoton_Photon__up_yield'
p51
aS'electron_veto_sf_Diphoton_Photon__down_yield'
p52
aS'trigger_sf__up_yield'
p53
aS'trigger_sf__down_yield'
p54
aS'L1_prefiring_sf__up_yield'
p55
aS'L1_prefiring_sf__down_yield'
p56
aS'puWeight__up_yield'
p57
aS'puWeight__down_yield'
p58
aS'btag_deepjet_sf_SelectedbJet_jes__up_yield'
p59
aS'btag_deepjet_sf_SelectedbJet_jes__down_yield'
p60
aS'btag_deepjet_sf_SelectedbJet_lf__up_yield'
p61
aS'btag_deepjet_sf_SelectedbJet_lf__down_yield'
p62
aS'btag_deepjet_sf_SelectedbJet_hfstats1__up_yield'
p63
aS'btag_deepjet_sf_SelectedbJet_hfstats1__down_yield'
p64
aS'btag_deepjet_sf_SelectedbJet_hfstats2__up_yield'
p65
aS'btag_deepjet_sf_SelectedbJet_hfstats2__down_yield'
p66
aS'btag_deepjet_sf_SelectedbJet_cferr1__up_yield'
p67
aS'btag_deepjet_sf_SelectedbJet_cferr1__down_yield'
p68
aS'btag_deepjet_sf_SelectedbJet_cferr2__up_yield'
p69
aS'btag_deepjet_sf_SelectedbJet_cferr2__down_yield'
p70
aS'btag_deepjet_sf_SelectedbJet_hf__up_yield'
p71
aS'btag_deepjet_sf_SelectedbJet_hf__down_yield'
p72
aS'btag_deepjet_sf_SelectedbJet_lfstats1__up_yield'
p73
aS'btag_deepjet_sf_SelectedbJet_lfstats1__down_yield'
p74
aS'btag_deepjet_sf_SelectedbJet_lfstats2__up_yield'
p75
aS'btag_deepjet_sf_SelectedbJet_lfstats2__down_yield'
p76
aS'JES_up_yield'
p77
aS'JES_down_yield'
p78
aS'JER_up_yield'
p79
aS'JER_down_yield'
p80
aS'FJER_up_yield'
p81
aS'FJER_down_yield'
p82
aS'FJES_up_yield'
p83
aS'FJES_down_yield'
p84
aS'FJHEM_up_yield'
p85
aS'FJHEM_down_yield'
p86
aS'JetHEM_up_yield'
p87
aS'JetHEM_down_yield'
p88
atp89
bsS'name'
p90
Nstp91
Rp92
ag15
(cpandas.core.indexes.numeric
Int64Index
p93
(dp94
g18
g19
(g20
(I0
tp95
g22
tp96
Rp97
(I1
(I6
tp98
g26
(S'i8'
p99
I0
I1
tp100
Rp101
(I3
S'<'
p102
NNNI-1
I-1
I0
tp103
bI00
S'\x00\x00\x00\x00\x00\x00\x00\x00\x01\x00\x00\x00\x00\x00\x00\x00\x02\x00\x00\x00\x00\x00\x00\x00\x03\x00\x00\x00\x00\x00\x00\x00\x04\x00\x00\x00\x00\x00\x00\x00\x05\x00\x00\x00\x00\x00\x00\x00'
p104
tp105
bsg90
Nstp106
Rp107
a(lp108
g19
(g20
(I0
tp109
g22
tp110
Rp111
(I1
(I1
I6
tp112
g26
(S'f8'
p113
I0
I1
tp114
Rp115
(I3
S'<'
p116
NNNI-1
I-1
I0
tp117
bI00
S'\x00\x00\x00\x00\xc06\xed@\x00\x00\x00\x00\x00A\xe4@\x00\x00\x00\x00\x00\x06\xd3@\x00\x00\x00\x00\x00^\xd0@\x00\x00\x00\x00\x00\x00\xf0?\x00\x00\x00\x00\x00\x00\xf0\xbf'
p118
tp119
bag19
(g20
(I0
tp120
g22
tp121
Rp122
(I1
(I55
I6
tp123
g29
I00
(lp124
S'2018'
p125
aS'2017'
p126
aS'2016pre'
p127
aS'2016post'
p128
aS'merged'
p129
ag129
aS'sig'
p130
ag130
ag130
ag130
aS'bkg'
p131
ag18
aS'gghh'
p132
ag132
ag132
ag132
aS'bkg_mass'
p133
aS'data_obs'
p134
aS'gghh_2018_hgg'
p135
aS'gghh_2017_hgg'
p136
aS'gghh_2016pre_hgg'
p137
aS'gghh_2016post_hgg'
p138
ag133
ag134
ag132
ag132
ag132
ag132
aS'-'
p139
ag139
aS'resolved_cat3'
p140
ag140
ag140
ag140
ag140
ag140
aS'/eos/cms/store/group/phys_higgs/cmshgg/zhjie/output/output_1000/opt_morecat/2018/root/addsys/ws_gghh_cat3_80/output_NMSSM_XToYHTo2B2G_MX-1000_MY-80_cat3_2018_M125_pythia8_gghh.root'
p141
aS'/eos/cms/store/group/phys_higgs/cmshgg/zhjie/output/output_1000/opt_morecat/2017/root/addsys/ws_gghh_cat3_80/output_NMSSM_XToYHTo2B2G_MX-1000_MY-80_cat3_2017_M125_pythia8_gghh.root'
p142
aS'/eos/cms/store/group/phys_higgs/cmshgg/zhjie/output/output_1000/opt_morecat/2016pre/root/addsys/ws_gghh_cat3_80/output_NMSSM_XToYHTo2B2G_MX-1000_MY-80_cat3_2016pre_M125_pythia8_gghh.root'
p143
aS'/eos/cms/store/group/phys_higgs/cmshgg/zhjie/output/output_1000/opt_morecat/2016post/root/addsys/ws_gghh_cat3_80/output_NMSSM_XToYHTo2B2G_MX-1000_MY-80_cat3_2016post_M125_pythia8_gghh.root'
p144
ag139
ag139
aS'gghh_125_13TeV_resolved_cat3'
p145
aS'gghh_125_13TeV_resolved_cat3'
p146
aS'gghh_125_13TeV_resolved_cat3'
p147
aS'gghh_125_13TeV_resolved_cat3'
p148
ag139
ag139
aS'/eos/user/z/zhjie/CMSSW_10_2_13/src/flashggFinalFit/Signal/outdir_packaged_mergeyears_1000_M80_cat3/CMS-HGG_sigfit_packaged_resolved_cat3.root'
p149
aS'/eos/user/z/zhjie/CMSSW_10_2_13/src/flashggFinalFit/Signal/outdir_packaged_mergeyears_1000_M80_cat3/CMS-HGG_sigfit_packaged_resolved_cat3.root'
p150
aS'/eos/user/z/zhjie/CMSSW_10_2_13/src/flashggFinalFit/Signal/outdir_packaged_mergeyears_1000_M80_cat3/CMS-HGG_sigfit_packaged_resolved_cat3.root'
p151
aS'/eos/user/z/zhjie/CMSSW_10_2_13/src/flashggFinalFit/Signal/outdir_packaged_mergeyears_1000_M80_cat3/CMS-HGG_sigfit_packaged_resolved_cat3.root'
p152
aS'/eos/cms/store/group/phys_higgs/cmshgg/zhjie/output/output_1000/opt_morecat/data/root/ws_cat3_80/CMS-HGG_multipdf_resolved_cat3.root'
p153
ag153
aS'wsig_13TeV:hggpdfsmrel_gghh_2018_resolved_cat3_13TeV'
p154
aS'wsig_13TeV:hggpdfsmrel_gghh_2017_resolved_cat3_13TeV'
p155
aS'wsig_13TeV:hggpdfsmrel_gghh_2016pre_resolved_cat3_13TeV'
p156
aS'wsig_13TeV:hggpdfsmrel_gghh_2016post_resolved_cat3_13TeV'
p157
aS'multipdf:CMS_hgg_resolved_cat3_13TeV_bkgshape'
p158
aS'multipdf:roohist_data_mass_resolved_cat3'
p159
aF0.0007733305737723454
aF0.0005555169681177939
aF0.00038000495682770363
aF0.0005184196439405799
ag139
ag139
aF2.3766170018109964e-09
aF1.5180401664837034e-09
aF2.10364207049193e-09
aF3.1539099419988688e-09
ag139
ag139
aF0.0007733305737723454
aF0.0005555169681177939
aF0.00038000495682770363
aF0.0005184196439405799
ag139
ag139
aF0.0007905673563796828
aF0.0005766483864020983
aF0.00038996017182811994
aF0.0005286449294252191
ag139
ag139
aF0.0007562799989771146
aF0.0005347608658574666
aF0.0003701730405611267
aF0.0005082905310826915
ag139
ag139
aF0.0008079793360253706
aF0.0005760951747410978
aF0.00039555988552310447
aF0.00053943700270835
ag139
ag139
aF0.0007394424917292384
aF0.0005353149623622978
aF0.00036476234336271774
aF0.0004978199969601066
ag139
ag139
aF0.0007752255405741671
aF0.0005577001876332768
aF0.00038091013323391954
aF0.0005199104878365416
ag139
ag139
aF0.0007714380219482976
aF0.0005533380318439604
aF0.0003791010273815909
aF0.0005169309710213399
ag139
ag139
aF0.0007753330573449896
aF0.0005572985674977126
aF0.0003807904981448808
aF0.0005195943955508649
ag139
ag139
aF0.0007713308425477547
aF0.000553737955202479
aF0.00037922022813471326
aF0.0005172462092236634
ag139
ag139
aF0.0007733305737723454
aF0.0005405007811464281
aF0.0003753670893176058
aF0.0005122246717281728
ag139
ag139
aF0.0007733305737723454
aF0.0005707256550901446
aF0.00038463602584558966
aF0.0005246621229210739
ag139
ag139
aF0.0007818661108513245
aF0.0005659755176945312
aF0.0003842945217095552
aF0.0005197122565797638
ag139
ag139
aF0.0007659070083056195
aF0.0005456851828650678
aF0.00037289479738281903
aF0.000514220758372453
ag139
ag139
aF0.0007642960146736668
aF0.0005525855739552827
aF0.0003777502427465128
aF0.0005153795259250893
ag139
ag139
aF0.0007805922859647323
aF0.0005600777394544519
aF0.0003818066482166953
aF0.0005207594300260326
ag139
ag139
aF0.0007467041512629695
aF0.000539287039281738
aF0.0003744931646159059
aF0.0005022048906714451
ag139
ag139
aF0.0007926134596652193
aF0.0005657307320419535
aF0.00038205185072569205
aF0.0005286316324424448
ag139
ag139
aF0.0007823355384849579
aF0.0005622402068997652
aF0.00038498038324804657
aF0.0005287770344629027
ag139
ag139
aF0.0007641311766550619
aF0.0005485624021801644
aF0.0003749586712137216
aF0.0005076543985894009
ag139
ag139
aF0.0007684480653415673
aF0.0005511919404995225
aF0.0003769562374482471
aF0.0005123810509773853
ag139
ag139
aF0.0007782393528712787
aF0.0005597420283018444
aF0.000383061197694131
aF0.0005243461429892298
ag139
ag139
aF0.0007784657813088747
aF0.0005636266061413584
aF0.0003823002639643821
aF0.0005253446974451494
ag139
ag139
aF0.0007676034005988999
aF0.0005469770384395055
aF0.0003772027668678224
aF0.0005106504203213284
ag139
ag139
aF0.000774978067841732
aF0.0005586763654396391
aF0.0003804261966072267
aF0.0005214600102637605
ag139
ag139
aF0.0007714073412753135
aF0.0005520503421843109
aF0.0003792289702582236
aF0.0005149035873808378
ag139
ag139
aF0.0007380807431134573
aF0.000535110383740737
aF0.0003655580095010245
aF0.0005020560562689094
ag139
ag139
aF0.000809611056550211
aF0.000574984821669646
aF0.0003942334817543832
aF0.0005343769497675117
ag139
ag139
aF0.0007742810044058613
aF0.0005565881060328803
aF0.00038127348223143746
aF0.0005193983846441318
ag139
ag139
aF0.0007724345208739248
aF0.0005543009936226311
aF0.00037810870560850846
aF0.0005173665517951126
ag139
ag139
aF0.0007700559246960195
aF0.0005540972692384431
aF0.0003784923241610368
aF0.0005170349442361529
ag139
ag139
aF0.0007769346222362387
aF0.0005569363173723821
aF0.00038119930603892004
aF0.0005198774665998632
ag139
ag139
aF0.000780769618220987
aF0.0005650410634135247
aF0.00041284303163729134
aF0.0005392577669371013
ag139
ag139
aF0.0008563743762206346
aF0.0005333070122728754
aF0.00043461319274593145
aF0.0004910585510829427
ag139
ag139
aF0.0007842072091979157
aF0.0005775814664918167
aF0.00040874861077661744
aF0.0005064162542840851
ag139
ag139
aF0.0007722551765135696
aF0.0005542590722564108
aF0.0004029280761509635
aF0.0005216453328543716
ag139
ag139
aF0.0008300541131517852
aF0.0005828833483684494
aF0.00038880079207143087
aF0.0005397503448672185
ag139
ag139
aF0.0008253997411522694
aF0.000575285272253401
aF0.00038880079207143087
aF0.0005397503448672185
ag139
ag139
aF0.000825364369907657
aF0.0005772587727322477
aF0.00038880079207143087
aF0.0005397503448672185
ag139
ag139
aF0.0008355543934069668
aF0.0005828833483684494
aF0.00038880079207143087
aF0.0005431658112636142
ag139
ag139
aF0.0008279723128584326
aF0.0005555169681177937
aF0.0003800049568277037
aF0.0005184196439405798
ag139
ag139
aF0.0008297913248087141
aF0.0005555169681177937
aF0.0003800049568277037
aF0.0005184196439405798
ag139
ag139
aF0.000778597463276691
aF0.0005555169681177937
aF0.0003800049568277037
aF0.0005184196439405798
ag139
ag139
aF0.0007795539714006294
aF0.0005555169681177937
aF0.0003800049568277037
aF0.0005184196439405798
ag139
ag139
atp160
ba(lp161
g15
(g16
(dp162
g18
g19
(g20
(I0
tp163
g22
tp164
Rp165
(I1
(I1
tp166
g29
I00
(lp167
g43
atp168
bsg90
Nstp169
Rp170
ag15
(g16
(dp171
g18
g19
(g20
(I0
tp172
g22
tp173
Rp174
(I1
(I55
tp175
g29
I00
(lp176
g33
ag34
ag35
ag36
ag37
ag38
ag39
ag40
ag41
ag42
ag44
ag45
ag46
ag47
ag48
ag49
ag50
ag51
ag52
ag53
ag54
ag55
ag56
ag57
ag58
ag59
ag60
ag61
ag62
ag63
ag64
ag65
ag66
ag67
ag68
ag69
ag70
ag71
ag72
ag73
ag74
ag75
ag76
ag77
ag78
ag79
ag80
ag81
ag82
ag83
ag84
ag85
ag86
ag87
ag88
atp177
bsg90
Nstp178
Rp179
a(dp180
S'0.14.1'
p181
(dp182
S'axes'
p183
g14
sS'blocks'
p184
(lp185
(dp186
S'mgr_locs'
p187
c__builtin__
slice
p188
(I10
I11
I1
tp189
Rp190
sS'values'
p191
g111
sa(dp192
g187
g19
(g20
(I0
tp193
g22
tp194
Rp195
(I1
(I55
tp196
g101
I00
S'\x00\x00\x00\x00\x00\x00\x00\x00\x01\x00\x00\x00\x00\x00\x00\x00\x02\x00\x00\x00\x00\x00\x00\x00\x03\x00\x00\x00\x00\x00\x00\x00\x04\x00\x00\x00\x00\x00\x00\x00\x05\x00\x00\x00\x00\x00\x00\x00\x06\x00\x00\x00\x00\x00\x00\x00\x07\x00\x00\x00\x00\x00\x00\x00\x08\x00\x00\x00\x00\x00\x00\x00\t\x00\x00\x00\x00\x00\x00\x00\x0b\x00\x00\x00\x00\x00\x00\x00\x0c\x00\x00\x00\x00\x00\x00\x00\r\x00\x00\x00\x00\x00\x00\x00\x0e\x00\x00\x00\x00\x00\x00\x00\x0f\x00\x00\x00\x00\x00\x00\x00\x10\x00\x00\x00\x00\x00\x00\x00\x11\x00\x00\x00\x00\x00\x00\x00\x12\x00\x00\x00\x00\x00\x00\x00\x13\x00\x00\x00\x00\x00\x00\x00\x14\x00\x00\x00\x00\x00\x00\x00\x15\x00\x00\x00\x00\x00\x00\x00\x16\x00\x00\x00\x00\x00\x00\x00\x17\x00\x00\x00\x00\x00\x00\x00\x18\x00\x00\x00\x00\x00\x00\x00\x19\x00\x00\x00\x00\x00\x00\x00\x1a\x00\x00\x00\x00\x00\x00\x00\x1b\x00\x00\x00\x00\x00\x00\x00\x1c\x00\x00\x00\x00\x00\x00\x00\x1d\x00\x00\x00\x00\x00\x00\x00\x1e\x00\x00\x00\x00\x00\x00\x00\x1f\x00\x00\x00\x00\x00\x00\x00 \x00\x00\x00\x00\x00\x00\x00!\x00\x00\x00\x00\x00\x00\x00"\x00\x00\x00\x00\x00\x00\x00#\x00\x00\x00\x00\x00\x00\x00$\x00\x00\x00\x00\x00\x00\x00%\x00\x00\x00\x00\x00\x00\x00&\x00\x00\x00\x00\x00\x00\x00\'\x00\x00\x00\x00\x00\x00\x00(\x00\x00\x00\x00\x00\x00\x00)\x00\x00\x00\x00\x00\x00\x00*\x00\x00\x00\x00\x00\x00\x00+\x00\x00\x00\x00\x00\x00\x00,\x00\x00\x00\x00\x00\x00\x00-\x00\x00\x00\x00\x00\x00\x00.\x00\x00\x00\x00\x00\x00\x00/\x00\x00\x00\x00\x00\x00\x000\x00\x00\x00\x00\x00\x00\x001\x00\x00\x00\x00\x00\x00\x002\x00\x00\x00\x00\x00\x00\x003\x00\x00\x00\x00\x00\x00\x004\x00\x00\x00\x00\x00\x00\x005\x00\x00\x00\x00\x00\x00\x006\x00\x00\x00\x00\x00\x00\x007\x00\x00\x00\x00\x00\x00\x00'
p197
tp198
bsg191
g122
sasstp199
bsb.