ccopy_reg
_reconstructor
p0
(cpandas.core.frame
DataFrame
p1
c__builtin__
object
p2
Ntp3
Rp4
(dp5
S'_metadata'
p6
(lp7
sS'_typ'
p8
S'dataframe'
p9
sS'_data'
p10
g0
(cpandas.core.internals
BlockManager
p11
g2
Ntp12
Rp13
((lp14
cpandas.core.indexes.base
_new_Index
p15
(cpandas.core.indexes.base
Index
p16
(dp17
S'data'
p18
cnumpy.core.multiarray
_reconstruct
p19
(cnumpy
ndarray
p20
(I0
tp21
S'b'
p22
tp23
Rp24
(I1
(I56
tp25
cnumpy
dtype
p26
(S'O8'
p27
I0
I1
tp28
Rp29
(I3
S'|'
p30
NNNI-1
I-1
I63
tp31
bI00
(lp32
S'year'
p33
aS'type'
p34
aS'procOriginal'
p35
aS'proc'
p36
aS'proc_s0'
p37
aS'cat'
p38
aS'inputWSFile'
p39
aS'nominalDataName'
p40
aS'modelWSFile'
p41
aS'model'
p42
aS'rate'
p43
aS'nominal_yield'
p44
aS'sumw2'
p45
aS'nominal_yield_COWCorr'
p46
aS'photon_id_sf_Diphoton_Photon__up_yield'
p47
aS'photon_id_sf_Diphoton_Photon__down_yield'
p48
aS'photon_presel_sf_Diphoton_Photon__up_yield'
p49
aS'photon_presel_sf_Diphoton_Photon__down_yield'
p50
aS'electron_veto_sf_Diphoton_Photon__up_yield'
p51
aS'electron_veto_sf_Diphoton_Photon__down_yield'
p52
aS'trigger_sf__up_yield'
p53
aS'trigger_sf__down_yield'
p54
aS'L1_prefiring_sf__up_yield'
p55
aS'L1_prefiring_sf__down_yield'
p56
aS'puWeight__up_yield'
p57
aS'puWeight__down_yield'
p58
aS'btag_deepjet_sf_SelectedbJet_jes__up_yield'
p59
aS'btag_deepjet_sf_SelectedbJet_jes__down_yield'
p60
aS'btag_deepjet_sf_SelectedbJet_lf__up_yield'
p61
aS'btag_deepjet_sf_SelectedbJet_lf__down_yield'
p62
aS'btag_deepjet_sf_SelectedbJet_hfstats1__up_yield'
p63
aS'btag_deepjet_sf_SelectedbJet_hfstats1__down_yield'
p64
aS'btag_deepjet_sf_SelectedbJet_hfstats2__up_yield'
p65
aS'btag_deepjet_sf_SelectedbJet_hfstats2__down_yield'
p66
aS'btag_deepjet_sf_SelectedbJet_cferr1__up_yield'
p67
aS'btag_deepjet_sf_SelectedbJet_cferr1__down_yield'
p68
aS'btag_deepjet_sf_SelectedbJet_cferr2__up_yield'
p69
aS'btag_deepjet_sf_SelectedbJet_cferr2__down_yield'
p70
aS'btag_deepjet_sf_SelectedbJet_hf__up_yield'
p71
aS'btag_deepjet_sf_SelectedbJet_hf__down_yield'
p72
aS'btag_deepjet_sf_SelectedbJet_lfstats1__up_yield'
p73
aS'btag_deepjet_sf_SelectedbJet_lfstats1__down_yield'
p74
aS'btag_deepjet_sf_SelectedbJet_lfstats2__up_yield'
p75
aS'btag_deepjet_sf_SelectedbJet_lfstats2__down_yield'
p76
aS'JES_up_yield'
p77
aS'JES_down_yield'
p78
aS'JER_up_yield'
p79
aS'JER_down_yield'
p80
aS'FJER_up_yield'
p81
aS'FJER_down_yield'
p82
aS'FJES_up_yield'
p83
aS'FJES_down_yield'
p84
aS'FJHEM_up_yield'
p85
aS'FJHEM_down_yield'
p86
aS'JetHEM_up_yield'
p87
aS'JetHEM_down_yield'
p88
atp89
bsS'name'
p90
Nstp91
Rp92
ag15
(cpandas.core.indexes.numeric
Int64Index
p93
(dp94
g18
g19
(g20
(I0
tp95
g22
tp96
Rp97
(I1
(I6
tp98
g26
(S'i8'
p99
I0
I1
tp100
Rp101
(I3
S'<'
p102
NNNI-1
I-1
I0
tp103
bI00
S'\x00\x00\x00\x00\x00\x00\x00\x00\x01\x00\x00\x00\x00\x00\x00\x00\x02\x00\x00\x00\x00\x00\x00\x00\x03\x00\x00\x00\x00\x00\x00\x00\x04\x00\x00\x00\x00\x00\x00\x00\x05\x00\x00\x00\x00\x00\x00\x00'
p104
tp105
bsg90
Nstp106
Rp107
a(lp108
g19
(g20
(I0
tp109
g22
tp110
Rp111
(I1
(I1
I6
tp112
g26
(S'f8'
p113
I0
I1
tp114
Rp115
(I3
S'<'
p116
NNNI-1
I-1
I0
tp117
bI00
S'\x00\x00\x00\x00\xc06\xed@\x00\x00\x00\x00\x00A\xe4@\x00\x00\x00\x00\x00\x06\xd3@\x00\x00\x00\x00\x00^\xd0@\x00\x00\x00\x00\x00\x00\xf0?\x00\x00\x00\x00\x00\x00\xf0\xbf'
p118
tp119
bag19
(g20
(I0
tp120
g22
tp121
Rp122
(I1
(I55
I6
tp123
g29
I00
(lp124
S'2018'
p125
aS'2017'
p126
aS'2016pre'
p127
aS'2016post'
p128
aS'merged'
p129
ag129
aS'sig'
p130
ag130
ag130
ag130
aS'bkg'
p131
ag18
aS'gghh'
p132
ag132
ag132
ag132
aS'bkg_mass'
p133
aS'data_obs'
p134
aS'gghh_2018_hgg'
p135
aS'gghh_2017_hgg'
p136
aS'gghh_2016pre_hgg'
p137
aS'gghh_2016post_hgg'
p138
ag133
ag134
ag132
ag132
ag132
ag132
aS'-'
p139
ag139
aS'resolved_cat3'
p140
ag140
ag140
ag140
ag140
ag140
aS'/eos/cms/store/group/phys_higgs/cmshgg/zhjie/output/output_1000/opt_morecat/2018/root/addsys/ws_gghh_cat3_250/output_NMSSM_XToYHTo2B2G_MX-1000_MY-250_cat3_2018_M125_pythia8_gghh.root'
p141
aS'/eos/cms/store/group/phys_higgs/cmshgg/zhjie/output/output_1000/opt_morecat/2017/root/addsys/ws_gghh_cat3_250/output_NMSSM_XToYHTo2B2G_MX-1000_MY-250_cat3_2017_M125_pythia8_gghh.root'
p142
aS'/eos/cms/store/group/phys_higgs/cmshgg/zhjie/output/output_1000/opt_morecat/2016pre/root/addsys/ws_gghh_cat3_250/output_NMSSM_XToYHTo2B2G_MX-1000_MY-250_cat3_2016pre_M125_pythia8_gghh.root'
p143
aS'/eos/cms/store/group/phys_higgs/cmshgg/zhjie/output/output_1000/opt_morecat/2016post/root/addsys/ws_gghh_cat3_250/output_NMSSM_XToYHTo2B2G_MX-1000_MY-250_cat3_2016post_M125_pythia8_gghh.root'
p144
ag139
ag139
aS'gghh_125_13TeV_resolved_cat3'
p145
aS'gghh_125_13TeV_resolved_cat3'
p146
aS'gghh_125_13TeV_resolved_cat3'
p147
aS'gghh_125_13TeV_resolved_cat3'
p148
ag139
ag139
aS'/eos/user/z/zhjie/CMSSW_10_2_13/src/flashggFinalFit/Signal/outdir_packaged_mergeyears_1000_M250_cat3/CMS-HGG_sigfit_packaged_resolved_cat3.root'
p149
aS'/eos/user/z/zhjie/CMSSW_10_2_13/src/flashggFinalFit/Signal/outdir_packaged_mergeyears_1000_M250_cat3/CMS-HGG_sigfit_packaged_resolved_cat3.root'
p150
aS'/eos/user/z/zhjie/CMSSW_10_2_13/src/flashggFinalFit/Signal/outdir_packaged_mergeyears_1000_M250_cat3/CMS-HGG_sigfit_packaged_resolved_cat3.root'
p151
aS'/eos/user/z/zhjie/CMSSW_10_2_13/src/flashggFinalFit/Signal/outdir_packaged_mergeyears_1000_M250_cat3/CMS-HGG_sigfit_packaged_resolved_cat3.root'
p152
aS'/eos/cms/store/group/phys_higgs/cmshgg/zhjie/output/output_1000/opt_morecat/data/root/ws_cat3_250/CMS-HGG_multipdf_resolved_cat3.root'
p153
ag153
aS'wsig_13TeV:hggpdfsmrel_gghh_2018_resolved_cat3_13TeV'
p154
aS'wsig_13TeV:hggpdfsmrel_gghh_2017_resolved_cat3_13TeV'
p155
aS'wsig_13TeV:hggpdfsmrel_gghh_2016pre_resolved_cat3_13TeV'
p156
aS'wsig_13TeV:hggpdfsmrel_gghh_2016post_resolved_cat3_13TeV'
p157
aS'multipdf:CMS_hgg_resolved_cat3_13TeV_bkgshape'
p158
aS'multipdf:roohist_data_mass_resolved_cat3'
p159
aF0.005718454698833659
aF0.004307715046044941
aF0.0035721061107402514
aF0.003946571048787553
ag139
ag139
aF1.578604754982951e-08
aF1.1471601223821689e-08
aF1.8065716295157693e-08
aF2.304867546922446e-08
ag139
ag139
aF0.005718454698833659
aF0.004307715046044941
aF0.0035721061107402514
aF0.003946571048787553
ag139
ag139
aF0.0058411801022023495
aF0.004482288377485346
aF0.0036615601559045747
aF0.004022576902912339
ag139
ag139
aF0.005597008746593438
aF0.004136241655763952
aF0.003483683656094978
aF0.0038712354176066413
ag139
ag139
aF0.005978759145227194
aF0.00447496268883539
aF0.0037185121310288017
aF0.00410883025959531
ag139
ag139
aF0.005463950712267207
aF0.004143665885934024
aF0.003428643943367703
aF0.0037875821509690713
ag139
ag139
aF0.0057303598777644895
aF0.0043230719514459285
aF0.003581435935885854
aF0.003956178050339558
ag139
ag139
aF0.005706563400309433
aF0.004292386223386288
aF0.003562788428143719
aF0.003936976498274288
ag139
ag139
aF0.0057321175485342424
aF0.004320169620861199
aF0.0035807294037527287
aF0.003955249789668521
ag139
ag139
aF0.0057048082882385
aF0.004295277621463892
aF0.0035634930886239277
aF0.003937901817290708
ag139
ag139
aF0.005718454698833659
aF0.004234700927347413
aF0.00352288465141788
aF0.003900872580396558
ag139
ag139
aF0.005718454698833659
aF0.004380845277129309
aF0.0036217616096667683
aF0.003992589459738082
ag139
ag139
aF0.005747609160920845
aF0.00434946027729092
aF0.0036393622308656523
aF0.003928900167386382
ag139
ag139
aF0.005686897217837013
aF0.004271478337345131
aF0.0035117313954239043
aF0.003954653300343553
ag139
ag139
aF0.005681903466274931
aF0.004296285683998044
aF0.0035633319129572205
aF0.003930084513483874
ag139
ag139
aF0.005756719523291545
aF0.004322288671243177
aF0.003585633094516853
aF0.0039483636891137755
ag139
ag139
aF0.005664827891547952
aF0.0042331436871447985
aF0.0035668215193727887
aF0.0039134829640528656
ag139
ag139
aF0.005698934271147203
aF0.0043287552025580165
aF0.0035336287077708138
aF0.003927099087125269
ag139
ag139
aF0.0057551163502036345
aF0.004350833512148222
aF0.0036097798807996294
aF0.003986980570650342
ag139
ag139
aF0.005680493204463179
aF0.004262420899886099
aF0.003532164721002773
aF0.0039008019617185865
ag139
ag139
aF0.005674621612822231
aF0.004267696006025398
aF0.0035254077783288774
aF0.0038953435057899003
ag139
ag139
aF0.005762779319607809
aF0.004347288127738684
aF0.00361838523177428
aF0.003996569744855823
ag139
ag139
aF0.005744196753306248
aF0.00433579615857579
aF0.0035770701095008237
aF0.0039766533581575515
ag139
ag139
aF0.0056902864938510895
aF0.004277034471893351
aF0.003565290924521281
aF0.003912123550650963
ag139
ag139
aF0.0057289726859358105
aF0.004315878132799601
aF0.0035738118237596556
aF0.003963091696687419
ag139
ag139
aF0.0057068736538048405
aF0.004298520421460874
aF0.0035690270158420527
aF0.003927560608266526
ag139
ag139
aF0.005607215996199905
aF0.004194174822839705
aF0.003471990682966848
aF0.003842317684140626
ag139
ag139
aF0.005835781226943738
aF0.004417500621976724
aF0.0036725865759058133
aF0.004046826117400797
ag139
ag139
aF0.005725194794320701
aF0.004309421304041753
aF0.0035702455153782805
aF0.003948691725846011
ag139
ag139
aF0.005712850789156289
aF0.004305526166159589
aF0.0035725049235842796
aF0.0039422077086171325
ag139
ag139
aF0.005708465397774314
aF0.004295480601153807
aF0.0035525254292976456
aF0.003932807037090227
ag139
ag139
aF0.005730936015317716
aF0.004320448338716276
aF0.0035918271282979375
aF0.003959689025107512
ag139
ag139
aF0.005787367134582183
aF0.004371650300088594
aF0.003558098018373371
aF0.0040665874984269325
ag139
ag139
aF0.00575823094404059
aF0.004354944520897304
aF0.0036279698476207834
aF0.003959233239170237
ag139
ag139
aF0.005871269820885633
aF0.004413140743346472
aF0.0036393823702234934
aF0.00399787399646079
ag139
ag139
aF0.005769528338067476
aF0.004294421772685574
aF0.003570094576382595
aF0.003986953533067312
ag139
ag139
aF0.005759544974794244
aF0.004321521051491546
aF0.0035814064439209413
aF0.003966964690990019
ag139
ag139
aF0.0057584765601656806
aF0.004324292227909554
aF0.0035814064439209413
aF0.003961882166376216
ag139
ag139
aF0.005750018954632488
aF0.004321521051491546
aF0.0035814064439209413
aF0.003961882166376216
ag139
ag139
aF0.005763262061703839
aF0.004326433060930045
aF0.0035814064439209413
aF0.003966964690990019
ag139
ag139
aF0.005756787974650677
aF0.004307715046044937
aF0.0035721061107402514
aF0.003946571048787557
ag139
ag139
aF0.005756787974650677
aF0.004307715046044937
aF0.0035721061107402514
aF0.003946571048787557
ag139
ag139
aF0.0058210070393804715
aF0.004307715046044937
aF0.0035721061107402514
aF0.003946571048787557
ag139
ag139
aF0.005841340095851494
aF0.004307715046044937
aF0.0035721061107402514
aF0.003946571048787557
ag139
ag139
atp160
ba(lp161
g15
(g16
(dp162
g18
g19
(g20
(I0
tp163
g22
tp164
Rp165
(I1
(I1
tp166
g29
I00
(lp167
g43
atp168
bsg90
Nstp169
Rp170
ag15
(g16
(dp171
g18
g19
(g20
(I0
tp172
g22
tp173
Rp174
(I1
(I55
tp175
g29
I00
(lp176
g33
ag34
ag35
ag36
ag37
ag38
ag39
ag40
ag41
ag42
ag44
ag45
ag46
ag47
ag48
ag49
ag50
ag51
ag52
ag53
ag54
ag55
ag56
ag57
ag58
ag59
ag60
ag61
ag62
ag63
ag64
ag65
ag66
ag67
ag68
ag69
ag70
ag71
ag72
ag73
ag74
ag75
ag76
ag77
ag78
ag79
ag80
ag81
ag82
ag83
ag84
ag85
ag86
ag87
ag88
atp177
bsg90
Nstp178
Rp179
a(dp180
S'0.14.1'
p181
(dp182
S'axes'
p183
g14
sS'blocks'
p184
(lp185
(dp186
S'mgr_locs'
p187
c__builtin__
slice
p188
(I10
I11
I1
tp189
Rp190
sS'values'
p191
g111
sa(dp192
g187
g19
(g20
(I0
tp193
g22
tp194
Rp195
(I1
(I55
tp196
g101
I00
S'\x00\x00\x00\x00\x00\x00\x00\x00\x01\x00\x00\x00\x00\x00\x00\x00\x02\x00\x00\x00\x00\x00\x00\x00\x03\x00\x00\x00\x00\x00\x00\x00\x04\x00\x00\x00\x00\x00\x00\x00\x05\x00\x00\x00\x00\x00\x00\x00\x06\x00\x00\x00\x00\x00\x00\x00\x07\x00\x00\x00\x00\x00\x00\x00\x08\x00\x00\x00\x00\x00\x00\x00\t\x00\x00\x00\x00\x00\x00\x00\x0b\x00\x00\x00\x00\x00\x00\x00\x0c\x00\x00\x00\x00\x00\x00\x00\r\x00\x00\x00\x00\x00\x00\x00\x0e\x00\x00\x00\x00\x00\x00\x00\x0f\x00\x00\x00\x00\x00\x00\x00\x10\x00\x00\x00\x00\x00\x00\x00\x11\x00\x00\x00\x00\x00\x00\x00\x12\x00\x00\x00\x00\x00\x00\x00\x13\x00\x00\x00\x00\x00\x00\x00\x14\x00\x00\x00\x00\x00\x00\x00\x15\x00\x00\x00\x00\x00\x00\x00\x16\x00\x00\x00\x00\x00\x00\x00\x17\x00\x00\x00\x00\x00\x00\x00\x18\x00\x00\x00\x00\x00\x00\x00\x19\x00\x00\x00\x00\x00\x00\x00\x1a\x00\x00\x00\x00\x00\x00\x00\x1b\x00\x00\x00\x00\x00\x00\x00\x1c\x00\x00\x00\x00\x00\x00\x00\x1d\x00\x00\x00\x00\x00\x00\x00\x1e\x00\x00\x00\x00\x00\x00\x00\x1f\x00\x00\x00\x00\x00\x00\x00 \x00\x00\x00\x00\x00\x00\x00!\x00\x00\x00\x00\x00\x00\x00"\x00\x00\x00\x00\x00\x00\x00#\x00\x00\x00\x00\x00\x00\x00$\x00\x00\x00\x00\x00\x00\x00%\x00\x00\x00\x00\x00\x00\x00&\x00\x00\x00\x00\x00\x00\x00\'\x00\x00\x00\x00\x00\x00\x00(\x00\x00\x00\x00\x00\x00\x00)\x00\x00\x00\x00\x00\x00\x00*\x00\x00\x00\x00\x00\x00\x00+\x00\x00\x00\x00\x00\x00\x00,\x00\x00\x00\x00\x00\x00\x00-\x00\x00\x00\x00\x00\x00\x00.\x00\x00\x00\x00\x00\x00\x00/\x00\x00\x00\x00\x00\x00\x000\x00\x00\x00\x00\x00\x00\x001\x00\x00\x00\x00\x00\x00\x002\x00\x00\x00\x00\x00\x00\x003\x00\x00\x00\x00\x00\x00\x004\x00\x00\x00\x00\x00\x00\x005\x00\x00\x00\x00\x00\x00\x006\x00\x00\x00\x00\x00\x00\x007\x00\x00\x00\x00\x00\x00\x00'
p197
tp198
bsg191
g122
sasstp199
bsb.