ccopy_reg
_reconstructor
p0
(cpandas.core.frame
DataFrame
p1
c__builtin__
object
p2
Ntp3
Rp4
(dp5
S'_metadata'
p6
(lp7
sS'_typ'
p8
S'dataframe'
p9
sS'_data'
p10
g0
(cpandas.core.internals
BlockManager
p11
g2
Ntp12
Rp13
((lp14
cpandas.core.indexes.base
_new_Index
p15
(cpandas.core.indexes.base
Index
p16
(dp17
S'data'
p18
cnumpy.core.multiarray
_reconstruct
p19
(cnumpy
ndarray
p20
(I0
tp21
S'b'
p22
tp23
Rp24
(I1
(I14
tp25
cnumpy
dtype
p26
(S'O8'
p27
I0
I1
tp28
Rp29
(I3
S'|'
p30
NNNI-1
I-1
I63
tp31
bI00
(lp32
S'year'
p33
aS'type'
p34
aS'procOriginal'
p35
aS'proc'
p36
aS'proc_s0'
p37
aS'cat'
p38
aS'inputWSFile'
p39
aS'nominalDataName'
p40
aS'modelWSFile'
p41
aS'model'
p42
aS'rate'
p43
aS'nominal_yield'
p44
aS'sumw2'
p45
aS'nominal_yield_COWCorr'
p46
atp47
bsS'name'
p48
Nstp49
Rp50
ag15
(cpandas.core.indexes.numeric
Int64Index
p51
(dp52
g18
g19
(g20
(I0
tp53
g22
tp54
Rp55
(I1
(I6
tp56
g26
(S'i8'
p57
I0
I1
tp58
Rp59
(I3
S'<'
p60
NNNI-1
I-1
I0
tp61
bI00
S'\x00\x00\x00\x00\x00\x00\x00\x00\x01\x00\x00\x00\x00\x00\x00\x00\x02\x00\x00\x00\x00\x00\x00\x00\x03\x00\x00\x00\x00\x00\x00\x00\x04\x00\x00\x00\x00\x00\x00\x00\x05\x00\x00\x00\x00\x00\x00\x00'
p62
tp63
bsg48
Nstp64
Rp65
a(lp66
g19
(g20
(I0
tp67
g22
tp68
Rp69
(I1
(I1
I6
tp70
g26
(S'f8'
p71
I0
I1
tp72
Rp73
(I3
S'<'
p74
NNNI-1
I-1
I0
tp75
bI00
S'\x00\x00\x00\x00\xc06\xed@\x00\x00\x00\x00\x00A\xe4@\x00\x00\x00\x00\x00\x06\xd3@\x00\x00\x00\x00\x00^\xd0@\x00\x00\x00\x00\x00\x00\xf0?\x00\x00\x00\x00\x00\x00\xf0\xbf'
p76
tp77
bag19
(g20
(I0
tp78
g22
tp79
Rp80
(I1
(I13
I6
tp81
g29
I00
(lp82
S'2018'
p83
aS'2017'
p84
aS'2016pre'
p85
aS'2016post'
p86
aS'merged'
p87
ag87
aS'sig'
p88
ag88
ag88
ag88
aS'bkg'
p89
ag18
aS'gghh'
p90
ag90
ag90
ag90
aS'bkg_mass'
p91
aS'data_obs'
p92
aS'gghh_2018_hgg'
p93
aS'gghh_2017_hgg'
p94
aS'gghh_2016pre_hgg'
p95
aS'gghh_2016post_hgg'
p96
ag91
ag92
ag90
ag90
ag90
ag90
aS'-'
p97
ag97
aS'boosted_cat0'
p98
ag98
ag98
ag98
ag98
ag98
aS'/eos/cms/store/group/phys_higgs/cmshgg/zhjie/output/output_1000_boost/opt/2018/root/ws_gghh_cat0_90/output_NMSSM_XToYHTo2B2G_MX-1000_MY-90_cat0_2018_M125_pythia8_gghh.root'
p99
aS'/eos/cms/store/group/phys_higgs/cmshgg/zhjie/output/output_1000_boost/opt/2017/root/ws_gghh_cat0_90/output_NMSSM_XToYHTo2B2G_MX-1000_MY-90_cat0_2017_M125_pythia8_gghh.root'
p100
aS'/eos/cms/store/group/phys_higgs/cmshgg/zhjie/output/output_1000_boost/opt/2016pre/root/ws_gghh_cat0_90/output_NMSSM_XToYHTo2B2G_MX-1000_MY-90_cat0_2016pre_M125_pythia8_gghh.root'
p101
aS'/eos/cms/store/group/phys_higgs/cmshgg/zhjie/output/output_1000_boost/opt/2016post/root/ws_gghh_cat0_90/output_NMSSM_XToYHTo2B2G_MX-1000_MY-90_cat0_2016post_M125_pythia8_gghh.root'
p102
ag97
ag97
aS'gghh_125_13TeV_boosted_cat0'
p103
aS'gghh_125_13TeV_boosted_cat0'
p104
aS'gghh_125_13TeV_boosted_cat0'
p105
aS'gghh_125_13TeV_boosted_cat0'
p106
ag97
ag97
aS'/eos/user/z/zhjie/CMSSW_10_2_13/src/flashggFinalFit/Signal/outdir_packaged_mergeyears_boost_masscut_1000_M90_cat0/CMS-HGG_sigfit_packaged_boosted_cat0.root'
p107
aS'/eos/user/z/zhjie/CMSSW_10_2_13/src/flashggFinalFit/Signal/outdir_packaged_mergeyears_boost_masscut_1000_M90_cat0/CMS-HGG_sigfit_packaged_boosted_cat0.root'
p108
aS'/eos/user/z/zhjie/CMSSW_10_2_13/src/flashggFinalFit/Signal/outdir_packaged_mergeyears_boost_masscut_1000_M90_cat0/CMS-HGG_sigfit_packaged_boosted_cat0.root'
p109
aS'/eos/user/z/zhjie/CMSSW_10_2_13/src/flashggFinalFit/Signal/outdir_packaged_mergeyears_boost_masscut_1000_M90_cat0/CMS-HGG_sigfit_packaged_boosted_cat0.root'
p110
aS'/eos/cms/store/group/phys_higgs/cmshgg/zhjie/output/output_1000_boost/opt/data/root/ws_cat0/CMS-HGG_multipdf_boosted_cat0.root'
p111
ag111
aS'wsig_13TeV:hggpdfsmrel_gghh_2018_boosted_cat0_13TeV'
p112
aS'wsig_13TeV:hggpdfsmrel_gghh_2017_boosted_cat0_13TeV'
p113
aS'wsig_13TeV:hggpdfsmrel_gghh_2016pre_boosted_cat0_13TeV'
p114
aS'wsig_13TeV:hggpdfsmrel_gghh_2016post_boosted_cat0_13TeV'
p115
aS'multipdf:CMS_hgg_boosted_cat0_13TeV_bkgshape'
p116
aS'multipdf:roohist_data_mass_boosted_cat0'
p117
aF0.18633303586840894
aF0.17355254421267807
aF0.19605143132333433
aF0.19407163322885723
ag97
ag97
aF4.3464870953383406e-07
aF3.9147957257513923e-07
aF8.779313668758687e-07
aF1.0065972605006929e-06
ag97
ag97
aF0.18633303586840894
aF0.17355254421267807
aF0.19605143132333433
aF0.19407163322885723
ag97
ag97
atp118
ba(lp119
g15
(g16
(dp120
g18
g19
(g20
(I0
tp121
g22
tp122
Rp123
(I1
(I1
tp124
g29
I00
(lp125
g43
atp126
bsg48
Nstp127
Rp128
ag15
(g16
(dp129
g18
g19
(g20
(I0
tp130
g22
tp131
Rp132
(I1
(I13
tp133
g29
I00
(lp134
g33
ag34
ag35
ag36
ag37
ag38
ag39
ag40
ag41
ag42
ag44
ag45
ag46
atp135
bsg48
Nstp136
Rp137
a(dp138
S'0.14.1'
p139
(dp140
S'axes'
p141
g14
sS'blocks'
p142
(lp143
(dp144
S'mgr_locs'
p145
c__builtin__
slice
p146
(I10
I11
I1
tp147
Rp148
sS'values'
p149
g69
sa(dp150
g145
g19
(g20
(I0
tp151
g22
tp152
Rp153
(I1
(I13
tp154
g59
I00
S'\x00\x00\x00\x00\x00\x00\x00\x00\x01\x00\x00\x00\x00\x00\x00\x00\x02\x00\x00\x00\x00\x00\x00\x00\x03\x00\x00\x00\x00\x00\x00\x00\x04\x00\x00\x00\x00\x00\x00\x00\x05\x00\x00\x00\x00\x00\x00\x00\x06\x00\x00\x00\x00\x00\x00\x00\x07\x00\x00\x00\x00\x00\x00\x00\x08\x00\x00\x00\x00\x00\x00\x00\t\x00\x00\x00\x00\x00\x00\x00\x0b\x00\x00\x00\x00\x00\x00\x00\x0c\x00\x00\x00\x00\x00\x00\x00\r\x00\x00\x00\x00\x00\x00\x00'
p155
tp156
bsg149
g80
sasstp157
bsb.