ccopy_reg
_reconstructor
p0
(cpandas.core.frame
DataFrame
p1
c__builtin__
object
p2
Ntp3
Rp4
(dp5
S'_metadata'
p6
(lp7
sS'_typ'
p8
S'dataframe'
p9
sS'_data'
p10
g0
(cpandas.core.internals
BlockManager
p11
g2
Ntp12
Rp13
((lp14
cpandas.core.indexes.base
_new_Index
p15
(cpandas.core.indexes.base
Index
p16
(dp17
S'data'
p18
cnumpy.core.multiarray
_reconstruct
p19
(cnumpy
ndarray
p20
(I0
tp21
S'b'
p22
tp23
Rp24
(I1
(I56
tp25
cnumpy
dtype
p26
(S'O8'
p27
I0
I1
tp28
Rp29
(I3
S'|'
p30
NNNI-1
I-1
I63
tp31
bI00
(lp32
S'year'
p33
aS'type'
p34
aS'procOriginal'
p35
aS'proc'
p36
aS'proc_s0'
p37
aS'cat'
p38
aS'inputWSFile'
p39
aS'nominalDataName'
p40
aS'modelWSFile'
p41
aS'model'
p42
aS'rate'
p43
aS'nominal_yield'
p44
aS'sumw2'
p45
aS'nominal_yield_COWCorr'
p46
aS'photon_id_sf_Diphoton_Photon__up_yield'
p47
aS'photon_id_sf_Diphoton_Photon__down_yield'
p48
aS'photon_presel_sf_Diphoton_Photon__up_yield'
p49
aS'photon_presel_sf_Diphoton_Photon__down_yield'
p50
aS'electron_veto_sf_Diphoton_Photon__up_yield'
p51
aS'electron_veto_sf_Diphoton_Photon__down_yield'
p52
aS'trigger_sf__up_yield'
p53
aS'trigger_sf__down_yield'
p54
aS'L1_prefiring_sf__up_yield'
p55
aS'L1_prefiring_sf__down_yield'
p56
aS'puWeight__up_yield'
p57
aS'puWeight__down_yield'
p58
aS'btag_deepjet_sf_SelectedbJet_jes__up_yield'
p59
aS'btag_deepjet_sf_SelectedbJet_jes__down_yield'
p60
aS'btag_deepjet_sf_SelectedbJet_lf__up_yield'
p61
aS'btag_deepjet_sf_SelectedbJet_lf__down_yield'
p62
aS'btag_deepjet_sf_SelectedbJet_hfstats1__up_yield'
p63
aS'btag_deepjet_sf_SelectedbJet_hfstats1__down_yield'
p64
aS'btag_deepjet_sf_SelectedbJet_hfstats2__up_yield'
p65
aS'btag_deepjet_sf_SelectedbJet_hfstats2__down_yield'
p66
aS'btag_deepjet_sf_SelectedbJet_cferr1__up_yield'
p67
aS'btag_deepjet_sf_SelectedbJet_cferr1__down_yield'
p68
aS'btag_deepjet_sf_SelectedbJet_cferr2__up_yield'
p69
aS'btag_deepjet_sf_SelectedbJet_cferr2__down_yield'
p70
aS'btag_deepjet_sf_SelectedbJet_hf__up_yield'
p71
aS'btag_deepjet_sf_SelectedbJet_hf__down_yield'
p72
aS'btag_deepjet_sf_SelectedbJet_lfstats1__up_yield'
p73
aS'btag_deepjet_sf_SelectedbJet_lfstats1__down_yield'
p74
aS'btag_deepjet_sf_SelectedbJet_lfstats2__up_yield'
p75
aS'btag_deepjet_sf_SelectedbJet_lfstats2__down_yield'
p76
aS'JES_up_yield'
p77
aS'JES_down_yield'
p78
aS'JER_up_yield'
p79
aS'JER_down_yield'
p80
aS'FJER_up_yield'
p81
aS'FJER_down_yield'
p82
aS'FJES_up_yield'
p83
aS'FJES_down_yield'
p84
aS'FJHEM_up_yield'
p85
aS'FJHEM_down_yield'
p86
aS'JetHEM_up_yield'
p87
aS'JetHEM_down_yield'
p88
atp89
bsS'name'
p90
Nstp91
Rp92
ag15
(cpandas.core.indexes.numeric
Int64Index
p93
(dp94
g18
g19
(g20
(I0
tp95
g22
tp96
Rp97
(I1
(I6
tp98
g26
(S'i8'
p99
I0
I1
tp100
Rp101
(I3
S'<'
p102
NNNI-1
I-1
I0
tp103
bI00
S'\x00\x00\x00\x00\x00\x00\x00\x00\x01\x00\x00\x00\x00\x00\x00\x00\x02\x00\x00\x00\x00\x00\x00\x00\x03\x00\x00\x00\x00\x00\x00\x00\x04\x00\x00\x00\x00\x00\x00\x00\x05\x00\x00\x00\x00\x00\x00\x00'
p104
tp105
bsg90
Nstp106
Rp107
a(lp108
g19
(g20
(I0
tp109
g22
tp110
Rp111
(I1
(I1
I6
tp112
g26
(S'f8'
p113
I0
I1
tp114
Rp115
(I3
S'<'
p116
NNNI-1
I-1
I0
tp117
bI00
S'\x00\x00\x00\x00\xc06\xed@\x00\x00\x00\x00\x00A\xe4@\x00\x00\x00\x00\x00\x06\xd3@\x00\x00\x00\x00\x00^\xd0@\x00\x00\x00\x00\x00\x00\xf0?\x00\x00\x00\x00\x00\x00\xf0\xbf'
p118
tp119
bag19
(g20
(I0
tp120
g22
tp121
Rp122
(I1
(I55
I6
tp123
g29
I00
(lp124
S'2018'
p125
aS'2017'
p126
aS'2016pre'
p127
aS'2016post'
p128
aS'merged'
p129
ag129
aS'sig'
p130
ag130
ag130
ag130
aS'bkg'
p131
ag18
aS'gghh'
p132
ag132
ag132
ag132
aS'bkg_mass'
p133
aS'data_obs'
p134
aS'gghh_2018_hgg'
p135
aS'gghh_2017_hgg'
p136
aS'gghh_2016pre_hgg'
p137
aS'gghh_2016post_hgg'
p138
ag133
ag134
ag132
ag132
ag132
ag132
aS'-'
p139
ag139
aS'resolved_cat0'
p140
ag140
ag140
ag140
ag140
ag140
aS'/eos/cms/store/group/phys_higgs/cmshgg/zhjie/output/output_1000/opt/2018/root/addsys/ws_gghh_cat0_700/output_NMSSM_XToYHTo2B2G_MX-1000_MY-700_cat0_2018_M125_pythia8_gghh.root'
p141
aS'/eos/cms/store/group/phys_higgs/cmshgg/zhjie/output/output_1000/opt/2017/root/addsys/ws_gghh_cat0_700/output_NMSSM_XToYHTo2B2G_MX-1000_MY-700_cat0_2017_M125_pythia8_gghh.root'
p142
aS'/eos/cms/store/group/phys_higgs/cmshgg/zhjie/output/output_1000/opt/2016pre/root/addsys/ws_gghh_cat0_700/output_NMSSM_XToYHTo2B2G_MX-1000_MY-700_cat0_2016pre_M125_pythia8_gghh.root'
p143
aS'/eos/cms/store/group/phys_higgs/cmshgg/zhjie/output/output_1000/opt/2016post/root/addsys/ws_gghh_cat0_700/output_NMSSM_XToYHTo2B2G_MX-1000_MY-700_cat0_2016post_M125_pythia8_gghh.root'
p144
ag139
ag139
aS'gghh_125_13TeV_resolved_cat0'
p145
aS'gghh_125_13TeV_resolved_cat0'
p146
aS'gghh_125_13TeV_resolved_cat0'
p147
aS'gghh_125_13TeV_resolved_cat0'
p148
ag139
ag139
aS'/eos/user/z/zhjie/CMSSW_10_2_13/src/flashggFinalFit/Signal/outdir_packaged_mergeyears_resolved_M1000_M700_cat0/CMS-HGG_sigfit_packaged_resolved_cat0.root'
p149
aS'/eos/user/z/zhjie/CMSSW_10_2_13/src/flashggFinalFit/Signal/outdir_packaged_mergeyears_resolved_M1000_M700_cat0/CMS-HGG_sigfit_packaged_resolved_cat0.root'
p150
aS'/eos/user/z/zhjie/CMSSW_10_2_13/src/flashggFinalFit/Signal/outdir_packaged_mergeyears_resolved_M1000_M700_cat0/CMS-HGG_sigfit_packaged_resolved_cat0.root'
p151
aS'/eos/user/z/zhjie/CMSSW_10_2_13/src/flashggFinalFit/Signal/outdir_packaged_mergeyears_resolved_M1000_M700_cat0/CMS-HGG_sigfit_packaged_resolved_cat0.root'
p152
aS'/eos/cms/store/group/phys_higgs/cmshgg/zhjie/output/output_1000/opt/data/root/ws_cat0_700/CMS-HGG_multipdf_resolved_cat0.root'
p153
ag153
aS'wsig_13TeV:hggpdfsmrel_gghh_2018_resolved_cat0_13TeV'
p154
aS'wsig_13TeV:hggpdfsmrel_gghh_2017_resolved_cat0_13TeV'
p155
aS'wsig_13TeV:hggpdfsmrel_gghh_2016pre_resolved_cat0_13TeV'
p156
aS'wsig_13TeV:hggpdfsmrel_gghh_2016post_resolved_cat0_13TeV'
p157
aS'multipdf:CMS_hgg_resolved_cat0_13TeV_bkgshape'
p158
aS'multipdf:roohist_data_mass_resolved_cat0'
p159
aF0.21573911794816653
aF0.22221311873148275
aF0.23250410858651155
aF0.23073112264797435
ag139
ag139
aF4.874984291405614e-07
aF4.908565468955903e-07
aF9.926551449049208e-07
aF1.1509997912537603e-06
ag139
ag139
aF0.21573911794816653
aF0.22221311873148275
aF0.23250410858651155
aF0.23073112264797435
ag139
ag139
aF0.2231637803468613
aF0.23765962617002884
aF0.24074462460306367
aF0.2394133486114591
ag139
ag139
aF0.20843287473002978
aF0.2072675390215056
aF0.224403440096649
aF0.22219478983456267
ag139
ag139
aF0.22587934035587212
aF0.23137920465448011
aF0.24233019312441967
aF0.24050719864968378
ag139
ag139
aF0.2058317666315141
aF0.21323238520076235
aF0.22288141112286375
aF0.2211578559547711
ag139
ag139
aF0.2160500000774634
aF0.22275747523182549
aF0.23291382767644397
aF0.23113202476243452
ag139
ag139
aF0.2154284813635772
aF0.2216694708123814
aF0.2320947674936451
aF0.2303305837570407
ag139
ag139
aF0.21620416579377685
aF0.2227512942542187
aF0.23299719726750562
aF0.23122224939941008
ag139
ag139
aF0.2152745747514078
aF0.22167558786030475
aF0.23201154637709862
aF0.23024052090395256
ag139
ag139
aF0.21573911794816653
aF0.22043540963161695
aF0.23129396870625812
aF0.22957014542306758
ag139
ag139
aF0.21573911794816653
aF0.2239744147230165
aF0.23371572189107795
aF0.23189313064675318
ag139
ag139
aF0.21485457671157251
aF0.22109722127886733
aF0.2314330619262209
aF0.2302860472215241
ag139
ag139
aF0.21646766909802356
aF0.22331577600082858
aF0.2334708984737445
aF0.23122789090135062
ag139
ag139
aF0.21445940138926112
aF0.2203637486753717
aF0.23180681117103322
aF0.22987766103710663
ag139
ag139
aF0.2169679364649907
aF0.22433567468074958
aF0.23445260698579193
aF0.2326193057613876
ag139
ag139
aF0.22130118553082861
aF0.22792345626413227
aF0.24018189379093607
aF0.2383417017533208
ag139
ag139
aF0.20656872636752857
aF0.21289943869751937
aF0.2207992232352712
aF0.21879098494421742
ag139
ag139
aF0.21452512044046612
aF0.22101127933781928
aF0.22997711365225498
aF0.22746745480959998
ag139
ag139
aF0.21677196588852418
aF0.22315304079485618
aF0.23449109703743787
aF0.2333044370189861
ag139
ag139
aF0.21410680175834396
aF0.22012431461028695
aF0.22899771648811332
aF0.2268781465945791
ag139
ag139
aF0.21735351015062984
aF0.22426882333882436
aF0.23584101741890315
aF0.2344284018687065
ag139
ag139
aF0.21578037037748826
aF0.22225332600467676
aF0.2325486782625777
aF0.2307787890800427
ag139
ag139
aF0.21569357436517442
aF0.22217175693371663
aF0.23245822156183948
aF0.23067900140010258
ag139
ag139
aF0.21575808175616026
aF0.22223085128662115
aF0.23251982855817294
aF0.23074840093831955
ag139
ag139
aF0.21571859254569642
aF0.22219771166103952
aF0.2324891828986207
aF0.23071211461268895
ag139
ag139
aF0.21550387013648922
aF0.22190991761142642
aF0.23209604830755978
aF0.23036822995741135
ag139
ag139
aF0.21598840470708805
aF0.22250557687596112
aF0.2329226813054982
aF0.23109095467665913
ag139
ag139
aF0.21574097506203796
aF0.22221643215828144
aF0.2324846666909101
aF0.23071722408614329
ag139
ag139
aF0.21573986764661016
aF0.22220873855227202
aF0.23252058093291494
aF0.23073926678994802
ag139
ag139
aF0.2157083553123562
aF0.22217739552410656
aF0.23241459133990014
aF0.2306614880377351
ag139
ag139
aF0.21577512837839702
aF0.22225066066508448
aF0.23259651766275424
aF0.23080178074578878
ag139
ag139
aF0.21690727907811377
aF0.22371850125954293
aF0.23601346005872673
aF0.23330660217978594
ag139
ag139
aF0.21583477434962423
aF0.22298174372828572
aF0.23521094767815848
aF0.23255422724528443
ag139
ag139
aF0.21630315677193157
aF0.22310889175868598
aF0.2354576834702655
aF0.23273487162722722
ag139
ag139
aF0.216647643725221
aF0.22369525100328463
aF0.23568775276388326
aF0.23310459736605732
ag139
ag139
aF0.21715632370334215
aF0.2239704794968845
aF0.23592694650174412
aF0.23325562989071666
ag139
ag139
aF0.21715632370334215
aF0.2239704794968845
aF0.23592694650174412
aF0.23325562989071666
ag139
ag139
aF0.21715632370334215
aF0.2239704794968845
aF0.23592694650174412
aF0.23325562989071666
ag139
ag139
aF0.21715632370334215
aF0.2239704794968845
aF0.23592694650174412
aF0.23325562989071666
ag139
ag139
aF0.21715632370334215
aF0.22221311873148128
aF0.23250410858650977
aF0.23073112264797307
ag139
ag139
aF0.21715632370334215
aF0.22221311873148128
aF0.23250410858650977
aF0.23073112264797307
ag139
ag139
aF0.21650023303039273
aF0.22221311873148128
aF0.23250410858650977
aF0.23073112264797307
ag139
ag139
aF0.21617154165892513
aF0.22221311873148128
aF0.23250410858650977
aF0.23073112264797307
ag139
ag139
atp160
ba(lp161
g15
(g16
(dp162
g18
g19
(g20
(I0
tp163
g22
tp164
Rp165
(I1
(I1
tp166
g29
I00
(lp167
g43
atp168
bsg90
Nstp169
Rp170
ag15
(g16
(dp171
g18
g19
(g20
(I0
tp172
g22
tp173
Rp174
(I1
(I55
tp175
g29
I00
(lp176
g33
ag34
ag35
ag36
ag37
ag38
ag39
ag40
ag41
ag42
ag44
ag45
ag46
ag47
ag48
ag49
ag50
ag51
ag52
ag53
ag54
ag55
ag56
ag57
ag58
ag59
ag60
ag61
ag62
ag63
ag64
ag65
ag66
ag67
ag68
ag69
ag70
ag71
ag72
ag73
ag74
ag75
ag76
ag77
ag78
ag79
ag80
ag81
ag82
ag83
ag84
ag85
ag86
ag87
ag88
atp177
bsg90
Nstp178
Rp179
a(dp180
S'0.14.1'
p181
(dp182
S'axes'
p183
g14
sS'blocks'
p184
(lp185
(dp186
S'mgr_locs'
p187
c__builtin__
slice
p188
(I10
I11
I1
tp189
Rp190
sS'values'
p191
g111
sa(dp192
g187
g19
(g20
(I0
tp193
g22
tp194
Rp195
(I1
(I55
tp196
g101
I00
S'\x00\x00\x00\x00\x00\x00\x00\x00\x01\x00\x00\x00\x00\x00\x00\x00\x02\x00\x00\x00\x00\x00\x00\x00\x03\x00\x00\x00\x00\x00\x00\x00\x04\x00\x00\x00\x00\x00\x00\x00\x05\x00\x00\x00\x00\x00\x00\x00\x06\x00\x00\x00\x00\x00\x00\x00\x07\x00\x00\x00\x00\x00\x00\x00\x08\x00\x00\x00\x00\x00\x00\x00\t\x00\x00\x00\x00\x00\x00\x00\x0b\x00\x00\x00\x00\x00\x00\x00\x0c\x00\x00\x00\x00\x00\x00\x00\r\x00\x00\x00\x00\x00\x00\x00\x0e\x00\x00\x00\x00\x00\x00\x00\x0f\x00\x00\x00\x00\x00\x00\x00\x10\x00\x00\x00\x00\x00\x00\x00\x11\x00\x00\x00\x00\x00\x00\x00\x12\x00\x00\x00\x00\x00\x00\x00\x13\x00\x00\x00\x00\x00\x00\x00\x14\x00\x00\x00\x00\x00\x00\x00\x15\x00\x00\x00\x00\x00\x00\x00\x16\x00\x00\x00\x00\x00\x00\x00\x17\x00\x00\x00\x00\x00\x00\x00\x18\x00\x00\x00\x00\x00\x00\x00\x19\x00\x00\x00\x00\x00\x00\x00\x1a\x00\x00\x00\x00\x00\x00\x00\x1b\x00\x00\x00\x00\x00\x00\x00\x1c\x00\x00\x00\x00\x00\x00\x00\x1d\x00\x00\x00\x00\x00\x00\x00\x1e\x00\x00\x00\x00\x00\x00\x00\x1f\x00\x00\x00\x00\x00\x00\x00 \x00\x00\x00\x00\x00\x00\x00!\x00\x00\x00\x00\x00\x00\x00"\x00\x00\x00\x00\x00\x00\x00#\x00\x00\x00\x00\x00\x00\x00$\x00\x00\x00\x00\x00\x00\x00%\x00\x00\x00\x00\x00\x00\x00&\x00\x00\x00\x00\x00\x00\x00\'\x00\x00\x00\x00\x00\x00\x00(\x00\x00\x00\x00\x00\x00\x00)\x00\x00\x00\x00\x00\x00\x00*\x00\x00\x00\x00\x00\x00\x00+\x00\x00\x00\x00\x00\x00\x00,\x00\x00\x00\x00\x00\x00\x00-\x00\x00\x00\x00\x00\x00\x00.\x00\x00\x00\x00\x00\x00\x00/\x00\x00\x00\x00\x00\x00\x000\x00\x00\x00\x00\x00\x00\x001\x00\x00\x00\x00\x00\x00\x002\x00\x00\x00\x00\x00\x00\x003\x00\x00\x00\x00\x00\x00\x004\x00\x00\x00\x00\x00\x00\x005\x00\x00\x00\x00\x00\x00\x006\x00\x00\x00\x00\x00\x00\x007\x00\x00\x00\x00\x00\x00\x00'
p197
tp198
bsg191
g122
sasstp199
bsb.