ccopy_reg
_reconstructor
p0
(cpandas.core.frame
DataFrame
p1
c__builtin__
object
p2
Ntp3
Rp4
(dp5
S'_metadata'
p6
(lp7
sS'_typ'
p8
S'dataframe'
p9
sS'_data'
p10
g0
(cpandas.core.internals
BlockManager
p11
g2
Ntp12
Rp13
((lp14
cpandas.core.indexes.base
_new_Index
p15
(cpandas.core.indexes.base
Index
p16
(dp17
S'data'
p18
cnumpy.core.multiarray
_reconstruct
p19
(cnumpy
ndarray
p20
(I0
tp21
S'b'
p22
tp23
Rp24
(I1
(I56
tp25
cnumpy
dtype
p26
(S'O8'
p27
I0
I1
tp28
Rp29
(I3
S'|'
p30
NNNI-1
I-1
I63
tp31
bI00
(lp32
S'year'
p33
aS'type'
p34
aS'procOriginal'
p35
aS'proc'
p36
aS'proc_s0'
p37
aS'cat'
p38
aS'inputWSFile'
p39
aS'nominalDataName'
p40
aS'modelWSFile'
p41
aS'model'
p42
aS'rate'
p43
aS'nominal_yield'
p44
aS'sumw2'
p45
aS'nominal_yield_COWCorr'
p46
aS'photon_id_sf_Diphoton_Photon__up_yield'
p47
aS'photon_id_sf_Diphoton_Photon__down_yield'
p48
aS'photon_presel_sf_Diphoton_Photon__up_yield'
p49
aS'photon_presel_sf_Diphoton_Photon__down_yield'
p50
aS'electron_veto_sf_Diphoton_Photon__up_yield'
p51
aS'electron_veto_sf_Diphoton_Photon__down_yield'
p52
aS'trigger_sf__up_yield'
p53
aS'trigger_sf__down_yield'
p54
aS'L1_prefiring_sf__up_yield'
p55
aS'L1_prefiring_sf__down_yield'
p56
aS'puWeight__up_yield'
p57
aS'puWeight__down_yield'
p58
aS'btag_deepjet_sf_SelectedbJet_jes__up_yield'
p59
aS'btag_deepjet_sf_SelectedbJet_jes__down_yield'
p60
aS'btag_deepjet_sf_SelectedbJet_lf__up_yield'
p61
aS'btag_deepjet_sf_SelectedbJet_lf__down_yield'
p62
aS'btag_deepjet_sf_SelectedbJet_hfstats1__up_yield'
p63
aS'btag_deepjet_sf_SelectedbJet_hfstats1__down_yield'
p64
aS'btag_deepjet_sf_SelectedbJet_hfstats2__up_yield'
p65
aS'btag_deepjet_sf_SelectedbJet_hfstats2__down_yield'
p66
aS'btag_deepjet_sf_SelectedbJet_cferr1__up_yield'
p67
aS'btag_deepjet_sf_SelectedbJet_cferr1__down_yield'
p68
aS'btag_deepjet_sf_SelectedbJet_cferr2__up_yield'
p69
aS'btag_deepjet_sf_SelectedbJet_cferr2__down_yield'
p70
aS'btag_deepjet_sf_SelectedbJet_hf__up_yield'
p71
aS'btag_deepjet_sf_SelectedbJet_hf__down_yield'
p72
aS'btag_deepjet_sf_SelectedbJet_lfstats1__up_yield'
p73
aS'btag_deepjet_sf_SelectedbJet_lfstats1__down_yield'
p74
aS'btag_deepjet_sf_SelectedbJet_lfstats2__up_yield'
p75
aS'btag_deepjet_sf_SelectedbJet_lfstats2__down_yield'
p76
aS'JES_up_yield'
p77
aS'JES_down_yield'
p78
aS'JER_up_yield'
p79
aS'JER_down_yield'
p80
aS'FJER_up_yield'
p81
aS'FJER_down_yield'
p82
aS'FJES_up_yield'
p83
aS'FJES_down_yield'
p84
aS'FJHEM_up_yield'
p85
aS'FJHEM_down_yield'
p86
aS'JetHEM_up_yield'
p87
aS'JetHEM_down_yield'
p88
atp89
bsS'name'
p90
Nstp91
Rp92
ag15
(cpandas.core.indexes.numeric
Int64Index
p93
(dp94
g18
g19
(g20
(I0
tp95
g22
tp96
Rp97
(I1
(I6
tp98
g26
(S'i8'
p99
I0
I1
tp100
Rp101
(I3
S'<'
p102
NNNI-1
I-1
I0
tp103
bI00
S'\x00\x00\x00\x00\x00\x00\x00\x00\x01\x00\x00\x00\x00\x00\x00\x00\x02\x00\x00\x00\x00\x00\x00\x00\x03\x00\x00\x00\x00\x00\x00\x00\x04\x00\x00\x00\x00\x00\x00\x00\x05\x00\x00\x00\x00\x00\x00\x00'
p104
tp105
bsg90
Nstp106
Rp107
a(lp108
g19
(g20
(I0
tp109
g22
tp110
Rp111
(I1
(I1
I6
tp112
g26
(S'f8'
p113
I0
I1
tp114
Rp115
(I3
S'<'
p116
NNNI-1
I-1
I0
tp117
bI00
S'\x00\x00\x00\x00\xc06\xed@\x00\x00\x00\x00\x00A\xe4@\x00\x00\x00\x00\x00\x06\xd3@\x00\x00\x00\x00\x00^\xd0@\x00\x00\x00\x00\x00\x00\xf0?\x00\x00\x00\x00\x00\x00\xf0\xbf'
p118
tp119
bag19
(g20
(I0
tp120
g22
tp121
Rp122
(I1
(I55
I6
tp123
g29
I00
(lp124
S'2018'
p125
aS'2017'
p126
aS'2016pre'
p127
aS'2016post'
p128
aS'merged'
p129
ag129
aS'sig'
p130
ag130
ag130
ag130
aS'bkg'
p131
ag18
aS'gghh'
p132
ag132
ag132
ag132
aS'bkg_mass'
p133
aS'data_obs'
p134
aS'gghh_2018_hgg'
p135
aS'gghh_2017_hgg'
p136
aS'gghh_2016pre_hgg'
p137
aS'gghh_2016post_hgg'
p138
ag133
ag134
ag132
ag132
ag132
ag132
aS'-'
p139
ag139
aS'resolved_cat1'
p140
ag140
ag140
ag140
ag140
ag140
aS'/eos/cms/store/group/phys_higgs/cmshgg/zhjie/output/output_1000/opt/2018/root/addsys/ws_gghh_cat1_100/output_NMSSM_XToYHTo2B2G_MX-1000_MY-100_cat1_2018_M125_pythia8_gghh.root'
p141
aS'/eos/cms/store/group/phys_higgs/cmshgg/zhjie/output/output_1000/opt/2017/root/addsys/ws_gghh_cat1_100/output_NMSSM_XToYHTo2B2G_MX-1000_MY-100_cat1_2017_M125_pythia8_gghh.root'
p142
aS'/eos/cms/store/group/phys_higgs/cmshgg/zhjie/output/output_1000/opt/2016pre/root/addsys/ws_gghh_cat1_100/output_NMSSM_XToYHTo2B2G_MX-1000_MY-100_cat1_2016pre_M125_pythia8_gghh.root'
p143
aS'/eos/cms/store/group/phys_higgs/cmshgg/zhjie/output/output_1000/opt/2016post/root/addsys/ws_gghh_cat1_100/output_NMSSM_XToYHTo2B2G_MX-1000_MY-100_cat1_2016post_M125_pythia8_gghh.root'
p144
ag139
ag139
aS'gghh_125_13TeV_resolved_cat1'
p145
aS'gghh_125_13TeV_resolved_cat1'
p146
aS'gghh_125_13TeV_resolved_cat1'
p147
aS'gghh_125_13TeV_resolved_cat1'
p148
ag139
ag139
aS'/eos/user/z/zhjie/CMSSW_10_2_13/src/flashggFinalFit/Signal/outdir_packaged_mergeyears_1000_M100_cat1/CMS-HGG_sigfit_packaged_resolved_cat1.root'
p149
aS'/eos/user/z/zhjie/CMSSW_10_2_13/src/flashggFinalFit/Signal/outdir_packaged_mergeyears_1000_M100_cat1/CMS-HGG_sigfit_packaged_resolved_cat1.root'
p150
aS'/eos/user/z/zhjie/CMSSW_10_2_13/src/flashggFinalFit/Signal/outdir_packaged_mergeyears_1000_M100_cat1/CMS-HGG_sigfit_packaged_resolved_cat1.root'
p151
aS'/eos/user/z/zhjie/CMSSW_10_2_13/src/flashggFinalFit/Signal/outdir_packaged_mergeyears_1000_M100_cat1/CMS-HGG_sigfit_packaged_resolved_cat1.root'
p152
aS'/eos/cms/store/group/phys_higgs/cmshgg/zhjie/output/output_1000/opt/data/root/ws_cat1_100/CMS-HGG_multipdf_resolved_cat1.root'
p153
ag153
aS'wsig_13TeV:hggpdfsmrel_gghh_2018_resolved_cat1_13TeV'
p154
aS'wsig_13TeV:hggpdfsmrel_gghh_2017_resolved_cat1_13TeV'
p155
aS'wsig_13TeV:hggpdfsmrel_gghh_2016pre_resolved_cat1_13TeV'
p156
aS'wsig_13TeV:hggpdfsmrel_gghh_2016post_resolved_cat1_13TeV'
p157
aS'multipdf:CMS_hgg_resolved_cat1_13TeV_bkgshape'
p158
aS'multipdf:roohist_data_mass_resolved_cat1'
p159
aF0.01165636557095512
aF0.00917882439486111
aF0.007842626821661222
aF0.008048966959444504
ag139
ag139
aF3.330304617534675e-08
aF2.490861239282138e-08
aF4.27969241302413e-08
aF4.880860158891803e-08
ag139
ag139
aF0.01165636557095512
aF0.00917882439486111
aF0.007842626821661222
aF0.008048966959444504
ag139
ag139
aF0.011913956709540015
aF0.009574249770126676
aF0.008049279905806844
aF0.008215690242545764
ag139
ag139
aF0.01140154125376338
aF0.008790895718101538
aF0.007638568131355228
aF0.007883908533797898
ag139
ag139
aF0.012188731775724227
aF0.009538090062695632
aF0.008165220739404675
aF0.008380517633687455
ag139
ag139
aF0.011135902120660604
aF0.008826489680964942
aF0.007526540915520856
aF0.007724113225701408
ag139
ag139
aF0.011679050891286208
aF0.009209196595038785
aF0.007861198408521257
aF0.008067809728932746
ag139
ag139
aF0.011633705645376788
aF0.009148505063631143
aF0.00782407932760266
aF0.008030148374341682
ag139
ag139
aF0.011683643340514483
aF0.009205141427681786
aF0.007859588475076658
aF0.008066449956698345
ag139
ag139
aF0.01162911971567788
aF0.009152543610348519
aF0.007825683518691787
aF0.008031502942368622
ag139
ag139
aF0.01165636557095512
aF0.009023564177752384
aF0.007752414207069391
aF0.007962202621761335
ag139
ag139
aF0.01165636557095512
aF0.009334225502322635
aF0.007933442295789427
aF0.008136156090514634
ag139
ag139
aF0.011680850850116145
aF0.009254537803612564
aF0.007970877276126534
aF0.008096926247014156
ag139
ag139
aF0.011631170010915133
aF0.00910577367850068
aF0.007717787561887879
aF0.008004433924687906
ag139
ag139
aF0.011564411863691676
aF0.00914307803088862
aF0.007817978990029695
aF0.008004041780707356
ag139
ag139
aF0.011740303477105881
aF0.009230397112846962
aF0.007877928678482951
aF0.008059169432421638
ag139
ag139
aF0.011509833993785685
aF0.00906876931313767
aF0.007788581995102541
aF0.007998319706755365
ag139
ag139
aF0.011674074395185982
aF0.009182682405554067
aF0.007806919922292339
aF0.008000473055143573
ag139
ag139
aF0.011734644569619947
aF0.009249367290950864
aF0.007918939770016084
aF0.008131516715925397
ag139
ag139
aF0.011575440813152928
aF0.009103640562633838
aF0.007763919506517382
aF0.00795694869927491
ag139
ag139
aF0.011577790953208489
aF0.00910690792614269
aF0.0077601222444463385
aF0.007945359372175052
ag139
ag139
aF0.011735820910959965
aF0.009249422143482258
aF0.007925486642002953
aF0.008150255277294663
ag139
ag139
aF0.011729440242661928
aF0.009264996141565871
aF0.007893798867388016
aF0.008097046332754954
ag139
ag139
aF0.011575748034343837
aF0.009085358954520985
aF0.007783762444603296
aF0.007994424858744619
ag139
ag139
aF0.011686176952980173
aF0.0092113063926129
aF0.007863809112736476
aF0.008072059029878141
ag139
ag139
aF0.011623016396853064
aF0.009143375959590897
aF0.00781623307469225
aF0.008022296451081183
ag139
ag139
aF0.011336574175708351
aF0.00885958640004661
aF0.007524301279410724
aF0.007771540390296155
ag139
ag139
aF0.011991225184254837
aF0.00948522794644769
aF0.008161909856592663
aF0.008322700671754378
ag139
ag139
aF0.011678115026971136
aF0.009194935366405338
aF0.007836186051460449
aF0.008061109097001312
ag139
ag139
aF0.011635826420184578
aF0.009159600164787361
aF0.007844780043384278
aF0.008031363478286641
ag139
ag139
aF0.011629159954492868
aF0.009150117962865932
aF0.007783271998016075
aF0.008015605538034168
ag139
ag139
aF0.011688838580364775
aF0.009208089894048458
aF0.00790223687458506
aF0.008081113028476255
ag139
ag139
aF0.01221514407021783
aF0.009578206554342602
aF0.008078308586655366
aF0.008251730740691975
ag139
ag139
aF0.011586204083070371
aF0.00925050351964213
aF0.00772210124034086
aF0.008108165503389254
ag139
ag139
aF0.01194778174792281
aF0.009471258852830863
aF0.0079569556034944
aF0.008238259390716799
ag139
ag139
aF0.011806827579845653
aF0.009279163651003359
aF0.007892497286748863
aF0.008139929887893143
ag139
ag139
aF0.01232490395401249
aF0.009661675526002689
aF0.008057577834716518
aF0.008302369657950124
ag139
ag139
aF0.01228539779355262
aF0.009574059876947167
aF0.008036649586453197
aF0.008283593631217483
ag139
ag139
aF0.012240425037673301
aF0.009579099741012332
aF0.008012155713198788
aF0.0082559758041344
ag139
ag139
aF0.0123817752397899
aF0.009654224647757328
aF0.008073016164282293
aF0.00834879530917393
ag139
ag139
aF0.01229927589823027
aF0.009178824394861118
aF0.007842626821661236
aF0.008048966959444511
ag139
ag139
aF0.0123304192781091
aF0.009178824394861118
aF0.007842626821661236
aF0.008048966959444511
ag139
ag139
aF0.011895959718038794
aF0.009178824394861118
aF0.007842626821661236
aF0.008048966959444511
ag139
ag139
aF0.011869592674762132
aF0.009178824394861118
aF0.007842626821661236
aF0.008048966959444511
ag139
ag139
atp160
ba(lp161
g15
(g16
(dp162
g18
g19
(g20
(I0
tp163
g22
tp164
Rp165
(I1
(I1
tp166
g29
I00
(lp167
g43
atp168
bsg90
Nstp169
Rp170
ag15
(g16
(dp171
g18
g19
(g20
(I0
tp172
g22
tp173
Rp174
(I1
(I55
tp175
g29
I00
(lp176
g33
ag34
ag35
ag36
ag37
ag38
ag39
ag40
ag41
ag42
ag44
ag45
ag46
ag47
ag48
ag49
ag50
ag51
ag52
ag53
ag54
ag55
ag56
ag57
ag58
ag59
ag60
ag61
ag62
ag63
ag64
ag65
ag66
ag67
ag68
ag69
ag70
ag71
ag72
ag73
ag74
ag75
ag76
ag77
ag78
ag79
ag80
ag81
ag82
ag83
ag84
ag85
ag86
ag87
ag88
atp177
bsg90
Nstp178
Rp179
a(dp180
S'0.14.1'
p181
(dp182
S'axes'
p183
g14
sS'blocks'
p184
(lp185
(dp186
S'mgr_locs'
p187
c__builtin__
slice
p188
(I10
I11
I1
tp189
Rp190
sS'values'
p191
g111
sa(dp192
g187
g19
(g20
(I0
tp193
g22
tp194
Rp195
(I1
(I55
tp196
g101
I00
S'\x00\x00\x00\x00\x00\x00\x00\x00\x01\x00\x00\x00\x00\x00\x00\x00\x02\x00\x00\x00\x00\x00\x00\x00\x03\x00\x00\x00\x00\x00\x00\x00\x04\x00\x00\x00\x00\x00\x00\x00\x05\x00\x00\x00\x00\x00\x00\x00\x06\x00\x00\x00\x00\x00\x00\x00\x07\x00\x00\x00\x00\x00\x00\x00\x08\x00\x00\x00\x00\x00\x00\x00\t\x00\x00\x00\x00\x00\x00\x00\x0b\x00\x00\x00\x00\x00\x00\x00\x0c\x00\x00\x00\x00\x00\x00\x00\r\x00\x00\x00\x00\x00\x00\x00\x0e\x00\x00\x00\x00\x00\x00\x00\x0f\x00\x00\x00\x00\x00\x00\x00\x10\x00\x00\x00\x00\x00\x00\x00\x11\x00\x00\x00\x00\x00\x00\x00\x12\x00\x00\x00\x00\x00\x00\x00\x13\x00\x00\x00\x00\x00\x00\x00\x14\x00\x00\x00\x00\x00\x00\x00\x15\x00\x00\x00\x00\x00\x00\x00\x16\x00\x00\x00\x00\x00\x00\x00\x17\x00\x00\x00\x00\x00\x00\x00\x18\x00\x00\x00\x00\x00\x00\x00\x19\x00\x00\x00\x00\x00\x00\x00\x1a\x00\x00\x00\x00\x00\x00\x00\x1b\x00\x00\x00\x00\x00\x00\x00\x1c\x00\x00\x00\x00\x00\x00\x00\x1d\x00\x00\x00\x00\x00\x00\x00\x1e\x00\x00\x00\x00\x00\x00\x00\x1f\x00\x00\x00\x00\x00\x00\x00 \x00\x00\x00\x00\x00\x00\x00!\x00\x00\x00\x00\x00\x00\x00"\x00\x00\x00\x00\x00\x00\x00#\x00\x00\x00\x00\x00\x00\x00$\x00\x00\x00\x00\x00\x00\x00%\x00\x00\x00\x00\x00\x00\x00&\x00\x00\x00\x00\x00\x00\x00\'\x00\x00\x00\x00\x00\x00\x00(\x00\x00\x00\x00\x00\x00\x00)\x00\x00\x00\x00\x00\x00\x00*\x00\x00\x00\x00\x00\x00\x00+\x00\x00\x00\x00\x00\x00\x00,\x00\x00\x00\x00\x00\x00\x00-\x00\x00\x00\x00\x00\x00\x00.\x00\x00\x00\x00\x00\x00\x00/\x00\x00\x00\x00\x00\x00\x000\x00\x00\x00\x00\x00\x00\x001\x00\x00\x00\x00\x00\x00\x002\x00\x00\x00\x00\x00\x00\x003\x00\x00\x00\x00\x00\x00\x004\x00\x00\x00\x00\x00\x00\x005\x00\x00\x00\x00\x00\x00\x006\x00\x00\x00\x00\x00\x00\x007\x00\x00\x00\x00\x00\x00\x00'
p197
tp198
bsg191
g122
sasstp199
bsb.