ccopy_reg
_reconstructor
p0
(cpandas.core.frame
DataFrame
p1
c__builtin__
object
p2
Ntp3
Rp4
(dp5
S'_metadata'
p6
(lp7
sS'_typ'
p8
S'dataframe'
p9
sS'_data'
p10
g0
(cpandas.core.internals
BlockManager
p11
g2
Ntp12
Rp13
((lp14
cpandas.core.indexes.base
_new_Index
p15
(cpandas.core.indexes.base
Index
p16
(dp17
S'data'
p18
cnumpy.core.multiarray
_reconstruct
p19
(cnumpy
ndarray
p20
(I0
tp21
S'b'
p22
tp23
Rp24
(I1
(I56
tp25
cnumpy
dtype
p26
(S'O8'
p27
I0
I1
tp28
Rp29
(I3
S'|'
p30
NNNI-1
I-1
I63
tp31
bI00
(lp32
S'year'
p33
aS'type'
p34
aS'procOriginal'
p35
aS'proc'
p36
aS'proc_s0'
p37
aS'cat'
p38
aS'inputWSFile'
p39
aS'nominalDataName'
p40
aS'modelWSFile'
p41
aS'model'
p42
aS'rate'
p43
aS'nominal_yield'
p44
aS'sumw2'
p45
aS'nominal_yield_COWCorr'
p46
aS'photon_id_sf_Diphoton_Photon__up_yield'
p47
aS'photon_id_sf_Diphoton_Photon__down_yield'
p48
aS'photon_presel_sf_Diphoton_Photon__up_yield'
p49
aS'photon_presel_sf_Diphoton_Photon__down_yield'
p50
aS'electron_veto_sf_Diphoton_Photon__up_yield'
p51
aS'electron_veto_sf_Diphoton_Photon__down_yield'
p52
aS'trigger_sf__up_yield'
p53
aS'trigger_sf__down_yield'
p54
aS'L1_prefiring_sf__up_yield'
p55
aS'L1_prefiring_sf__down_yield'
p56
aS'puWeight__up_yield'
p57
aS'puWeight__down_yield'
p58
aS'btag_deepjet_sf_SelectedbJet_jes__up_yield'
p59
aS'btag_deepjet_sf_SelectedbJet_jes__down_yield'
p60
aS'btag_deepjet_sf_SelectedbJet_lf__up_yield'
p61
aS'btag_deepjet_sf_SelectedbJet_lf__down_yield'
p62
aS'btag_deepjet_sf_SelectedbJet_hfstats1__up_yield'
p63
aS'btag_deepjet_sf_SelectedbJet_hfstats1__down_yield'
p64
aS'btag_deepjet_sf_SelectedbJet_hfstats2__up_yield'
p65
aS'btag_deepjet_sf_SelectedbJet_hfstats2__down_yield'
p66
aS'btag_deepjet_sf_SelectedbJet_cferr1__up_yield'
p67
aS'btag_deepjet_sf_SelectedbJet_cferr1__down_yield'
p68
aS'btag_deepjet_sf_SelectedbJet_cferr2__up_yield'
p69
aS'btag_deepjet_sf_SelectedbJet_cferr2__down_yield'
p70
aS'btag_deepjet_sf_SelectedbJet_hf__up_yield'
p71
aS'btag_deepjet_sf_SelectedbJet_hf__down_yield'
p72
aS'btag_deepjet_sf_SelectedbJet_lfstats1__up_yield'
p73
aS'btag_deepjet_sf_SelectedbJet_lfstats1__down_yield'
p74
aS'btag_deepjet_sf_SelectedbJet_lfstats2__up_yield'
p75
aS'btag_deepjet_sf_SelectedbJet_lfstats2__down_yield'
p76
aS'JES_up_yield'
p77
aS'JES_down_yield'
p78
aS'JER_up_yield'
p79
aS'JER_down_yield'
p80
aS'FJER_up_yield'
p81
aS'FJER_down_yield'
p82
aS'FJES_up_yield'
p83
aS'FJES_down_yield'
p84
aS'FJHEM_up_yield'
p85
aS'FJHEM_down_yield'
p86
aS'JetHEM_up_yield'
p87
aS'JetHEM_down_yield'
p88
atp89
bsS'name'
p90
Nstp91
Rp92
ag15
(cpandas.core.indexes.numeric
Int64Index
p93
(dp94
g18
g19
(g20
(I0
tp95
g22
tp96
Rp97
(I1
(I6
tp98
g26
(S'i8'
p99
I0
I1
tp100
Rp101
(I3
S'<'
p102
NNNI-1
I-1
I0
tp103
bI00
S'\x00\x00\x00\x00\x00\x00\x00\x00\x01\x00\x00\x00\x00\x00\x00\x00\x02\x00\x00\x00\x00\x00\x00\x00\x03\x00\x00\x00\x00\x00\x00\x00\x04\x00\x00\x00\x00\x00\x00\x00\x05\x00\x00\x00\x00\x00\x00\x00'
p104
tp105
bsg90
Nstp106
Rp107
a(lp108
g19
(g20
(I0
tp109
g22
tp110
Rp111
(I1
(I1
I6
tp112
g26
(S'f8'
p113
I0
I1
tp114
Rp115
(I3
S'<'
p116
NNNI-1
I-1
I0
tp117
bI00
S'\x00\x00\x00\x00\xc06\xed@\x00\x00\x00\x00\x00A\xe4@\x00\x00\x00\x00\x00\x06\xd3@\x00\x00\x00\x00\x00^\xd0@\x00\x00\x00\x00\x00\x00\xf0?\x00\x00\x00\x00\x00\x00\xf0\xbf'
p118
tp119
bag19
(g20
(I0
tp120
g22
tp121
Rp122
(I1
(I55
I6
tp123
g29
I00
(lp124
S'2018'
p125
aS'2017'
p126
aS'2016pre'
p127
aS'2016post'
p128
aS'merged'
p129
ag129
aS'sig'
p130
ag130
ag130
ag130
aS'bkg'
p131
ag18
aS'gghh'
p132
ag132
ag132
ag132
aS'bkg_mass'
p133
aS'data_obs'
p134
aS'gghh_2018_hgg'
p135
aS'gghh_2017_hgg'
p136
aS'gghh_2016pre_hgg'
p137
aS'gghh_2016post_hgg'
p138
ag133
ag134
ag132
ag132
ag132
ag132
aS'-'
p139
ag139
aS'resolved_cat3'
p140
ag140
ag140
ag140
ag140
ag140
aS'/eos/cms/store/group/phys_higgs/cmshgg/zhjie/output/output_1000/opt_morecat/2018/root/addsys/ws_gghh_cat3_350/output_NMSSM_XToYHTo2B2G_MX-1000_MY-350_cat3_2018_M125_pythia8_gghh.root'
p141
aS'/eos/cms/store/group/phys_higgs/cmshgg/zhjie/output/output_1000/opt_morecat/2017/root/addsys/ws_gghh_cat3_350/output_NMSSM_XToYHTo2B2G_MX-1000_MY-350_cat3_2017_M125_pythia8_gghh.root'
p142
aS'/eos/cms/store/group/phys_higgs/cmshgg/zhjie/output/output_1000/opt_morecat/2016pre/root/addsys/ws_gghh_cat3_350/output_NMSSM_XToYHTo2B2G_MX-1000_MY-350_cat3_2016pre_M125_pythia8_gghh.root'
p143
aS'/eos/cms/store/group/phys_higgs/cmshgg/zhjie/output/output_1000/opt_morecat/2016post/root/addsys/ws_gghh_cat3_350/output_NMSSM_XToYHTo2B2G_MX-1000_MY-350_cat3_2016post_M125_pythia8_gghh.root'
p144
ag139
ag139
aS'gghh_125_13TeV_resolved_cat3'
p145
aS'gghh_125_13TeV_resolved_cat3'
p146
aS'gghh_125_13TeV_resolved_cat3'
p147
aS'gghh_125_13TeV_resolved_cat3'
p148
ag139
ag139
aS'/eos/user/z/zhjie/CMSSW_10_2_13/src/flashggFinalFit/Signal/outdir_packaged_mergeyears_1000_M350_cat3/CMS-HGG_sigfit_packaged_resolved_cat3.root'
p149
aS'/eos/user/z/zhjie/CMSSW_10_2_13/src/flashggFinalFit/Signal/outdir_packaged_mergeyears_1000_M350_cat3/CMS-HGG_sigfit_packaged_resolved_cat3.root'
p150
aS'/eos/user/z/zhjie/CMSSW_10_2_13/src/flashggFinalFit/Signal/outdir_packaged_mergeyears_1000_M350_cat3/CMS-HGG_sigfit_packaged_resolved_cat3.root'
p151
aS'/eos/user/z/zhjie/CMSSW_10_2_13/src/flashggFinalFit/Signal/outdir_packaged_mergeyears_1000_M350_cat3/CMS-HGG_sigfit_packaged_resolved_cat3.root'
p152
aS'/eos/cms/store/group/phys_higgs/cmshgg/zhjie/output/output_1000/opt_morecat/data/root/ws_cat3_350/CMS-HGG_multipdf_resolved_cat3.root'
p153
ag153
aS'wsig_13TeV:hggpdfsmrel_gghh_2018_resolved_cat3_13TeV'
p154
aS'wsig_13TeV:hggpdfsmrel_gghh_2017_resolved_cat3_13TeV'
p155
aS'wsig_13TeV:hggpdfsmrel_gghh_2016pre_resolved_cat3_13TeV'
p156
aS'wsig_13TeV:hggpdfsmrel_gghh_2016post_resolved_cat3_13TeV'
p157
aS'multipdf:CMS_hgg_resolved_cat3_13TeV_bkgshape'
p158
aS'multipdf:roohist_data_mass_resolved_cat3'
p159
aF0.009570702819605027
aF0.007642435832404169
aF0.0063283652855273265
aF0.0069706625325043564
ag139
ag139
aF2.5512502766132134e-08
aF1.9421913410400687e-08
aF3.19237911710119e-08
aF4.027632493397312e-08
ag139
ag139
aF0.009570702819605027
aF0.007642435832404169
aF0.0063283652855273265
aF0.0069706625325043564
ag139
ag139
aF0.009774649379114818
aF0.007948808925946047
aF0.006488173670199804
aF0.007103799500241427
ag139
ag139
aF0.009368881734420902
aF0.007341296347903782
aF0.006170541792391153
aF0.006838746552835736
ag139
ag139
aF0.0100107942643873
aF0.007945384720160875
aF0.0065896317104248096
aF0.0072603983357232395
ag139
ag139
aF0.009140514832781036
aF0.007345399169006048
aF0.006072388233407794
aF0.006686830803692928
ag139
ag139
aF0.009588796792265316
aF0.007666745830074802
aF0.006341898606255656
aF0.006986354633796275
ag139
ag139
aF0.009552628189209707
aF0.007618167888459814
aF0.006314847573535526
aF0.006954989180803523
ag139
ag139
aF0.009592676900639863
aF0.007663749771800657
aF0.006341451875900818
aF0.006985953326224108
ag139
ag139
aF0.009548753892804707
aF0.00762115133038373
aF0.006315292280933911
aF0.006955388501775035
ag139
ag139
aF0.009570702819605027
aF0.007525517281697906
aF0.006263103815342361
aF0.00690468819714687
ag139
ag139
aF0.009570702819605027
aF0.007759569403510814
aF0.006394031843115688
aF0.007037018515937399
ag139
ag139
aF0.009623627715505052
aF0.0076378475560917305
aF0.006410590565035954
aF0.006997544779583558
ag139
ag139
aF0.009511090377328637
aF0.007637132083564719
aF0.006258565714486987
aF0.006941393706559701
ag139
ag139
aF0.00951734947360733
aF0.007614949594624365
aF0.006309970507511056
aF0.006935107258673935
ag139
ag139
aF0.009623890915593106
aF0.007674968730851791
aF0.006363195333375825
aF0.006988623809701188
ag139
ag139
aF0.009531374289053115
aF0.007605021662612842
aF0.006336894001771897
aF0.006963922239278684
ag139
ag139
aF0.009486647253128271
aF0.007585715893127399
aF0.006241259016870166
aF0.006880314350138814
ag139
ag139
aF0.00961730738295303
aF0.007686114534126977
aF0.006375410517094802
aF0.007027452426625305
ag139
ag139
aF0.00952090511275338
aF0.007594100714895756
aF0.006277417438282189
aF0.006903967740693373
ag139
ag139
aF0.009496689393917164
aF0.007573864579000639
aF0.006246383287936593
aF0.0068656967182961805
ag139
ag139
aF0.00964536738416519
aF0.007710297277818391
aF0.0064098699465378805
aF0.0070738025318525894
ag139
ag139
aF0.009606834142469692
aF0.0076838931101910046
aF0.006362994785484033
aF0.007003570915409168
ag139
ag139
aF0.009528828789859448
aF0.0075961692105707595
aF0.006288856327157443
aF0.006932756905548578
ag139
ag139
aF0.009583588608462014
aF0.007654731377829149
aF0.006337927473020354
aF0.006984994402280801
ag139
ag139
aF0.009554739404887325
aF0.007627781504560145
aF0.006315488869719279
aF0.0069533275918268736
ag139
ag139
aF0.009366961016204108
aF0.007439719778093784
aF0.006140501950299139
aF0.006777443905026519
ag139
ag139
aF0.009781776727374092
aF0.007839174333632576
aF0.006520216731110167
aF0.007168198381303921
ag139
ag139
aF0.009572232044608086
aF0.007641498948859465
aF0.006322492546245753
aF0.006963592996618627
ag139
ag139
aF0.009570787449947797
aF0.007642245140527421
aF0.00633211332382045
aF0.006976371484110472
ag139
ag139
aF0.009547349987411613
aF0.007618415768069128
aF0.0062921169377398774
aF0.00693723049458045
ag139
ag139
aF0.009597508272423606
aF0.007667000480651401
aF0.006365083466127823
aF0.007005348421197703
ag139
ag139
aF0.009515713130579657
aF0.007799694282534999
aF0.006480497166282855
aF0.007064325899611821
ag139
ag139
aF0.009523603780803464
aF0.007687458836443602
aF0.006377417106944176
aF0.007105413172829357
ag139
ag139
aF0.009519926975722593
aF0.00785537927334366
aF0.006329474318407945
aF0.007131436272939888
ag139
ag139
aF0.009517665926751285
aF0.007757402032688073
aF0.006341675590956161
aF0.007091121713436828
ag139
ag139
aF0.009648087167483225
aF0.007689776819494007
aF0.0063550316975086235
aF0.007022219468461386
ag139
ag139
aF0.009645823332026971
aF0.007684817677093765
aF0.00634687135969413
aF0.007016263243504062
ag139
ag139
aF0.00963419605671689
aF0.007686988203675026
aF0.00634687135969413
aF0.007016263243504062
ag139
ag139
aF0.009658276436450716
aF0.007689776819494007
aF0.006360411502507972
aF0.007026551613007151
ag139
ag139
aF0.009648087167483225
aF0.007642435832404163
aF0.006328365285527333
aF0.006970662532504359
ag139
ag139
aF0.009648087167483225
aF0.007642435832404163
aF0.006328365285527333
aF0.006970662532504359
ag139
ag139
aF0.009518677281914047
aF0.007642435832404163
aF0.006328365285527333
aF0.006970662532504359
ag139
ag139
aF0.00951527109071646
aF0.007642435832404163
aF0.006328365285527333
aF0.006970662532504359
ag139
ag139
atp160
ba(lp161
g15
(g16
(dp162
g18
g19
(g20
(I0
tp163
g22
tp164
Rp165
(I1
(I1
tp166
g29
I00
(lp167
g43
atp168
bsg90
Nstp169
Rp170
ag15
(g16
(dp171
g18
g19
(g20
(I0
tp172
g22
tp173
Rp174
(I1
(I55
tp175
g29
I00
(lp176
g33
ag34
ag35
ag36
ag37
ag38
ag39
ag40
ag41
ag42
ag44
ag45
ag46
ag47
ag48
ag49
ag50
ag51
ag52
ag53
ag54
ag55
ag56
ag57
ag58
ag59
ag60
ag61
ag62
ag63
ag64
ag65
ag66
ag67
ag68
ag69
ag70
ag71
ag72
ag73
ag74
ag75
ag76
ag77
ag78
ag79
ag80
ag81
ag82
ag83
ag84
ag85
ag86
ag87
ag88
atp177
bsg90
Nstp178
Rp179
a(dp180
S'0.14.1'
p181
(dp182
S'axes'
p183
g14
sS'blocks'
p184
(lp185
(dp186
S'mgr_locs'
p187
c__builtin__
slice
p188
(I10
I11
I1
tp189
Rp190
sS'values'
p191
g111
sa(dp192
g187
g19
(g20
(I0
tp193
g22
tp194
Rp195
(I1
(I55
tp196
g101
I00
S'\x00\x00\x00\x00\x00\x00\x00\x00\x01\x00\x00\x00\x00\x00\x00\x00\x02\x00\x00\x00\x00\x00\x00\x00\x03\x00\x00\x00\x00\x00\x00\x00\x04\x00\x00\x00\x00\x00\x00\x00\x05\x00\x00\x00\x00\x00\x00\x00\x06\x00\x00\x00\x00\x00\x00\x00\x07\x00\x00\x00\x00\x00\x00\x00\x08\x00\x00\x00\x00\x00\x00\x00\t\x00\x00\x00\x00\x00\x00\x00\x0b\x00\x00\x00\x00\x00\x00\x00\x0c\x00\x00\x00\x00\x00\x00\x00\r\x00\x00\x00\x00\x00\x00\x00\x0e\x00\x00\x00\x00\x00\x00\x00\x0f\x00\x00\x00\x00\x00\x00\x00\x10\x00\x00\x00\x00\x00\x00\x00\x11\x00\x00\x00\x00\x00\x00\x00\x12\x00\x00\x00\x00\x00\x00\x00\x13\x00\x00\x00\x00\x00\x00\x00\x14\x00\x00\x00\x00\x00\x00\x00\x15\x00\x00\x00\x00\x00\x00\x00\x16\x00\x00\x00\x00\x00\x00\x00\x17\x00\x00\x00\x00\x00\x00\x00\x18\x00\x00\x00\x00\x00\x00\x00\x19\x00\x00\x00\x00\x00\x00\x00\x1a\x00\x00\x00\x00\x00\x00\x00\x1b\x00\x00\x00\x00\x00\x00\x00\x1c\x00\x00\x00\x00\x00\x00\x00\x1d\x00\x00\x00\x00\x00\x00\x00\x1e\x00\x00\x00\x00\x00\x00\x00\x1f\x00\x00\x00\x00\x00\x00\x00 \x00\x00\x00\x00\x00\x00\x00!\x00\x00\x00\x00\x00\x00\x00"\x00\x00\x00\x00\x00\x00\x00#\x00\x00\x00\x00\x00\x00\x00$\x00\x00\x00\x00\x00\x00\x00%\x00\x00\x00\x00\x00\x00\x00&\x00\x00\x00\x00\x00\x00\x00\'\x00\x00\x00\x00\x00\x00\x00(\x00\x00\x00\x00\x00\x00\x00)\x00\x00\x00\x00\x00\x00\x00*\x00\x00\x00\x00\x00\x00\x00+\x00\x00\x00\x00\x00\x00\x00,\x00\x00\x00\x00\x00\x00\x00-\x00\x00\x00\x00\x00\x00\x00.\x00\x00\x00\x00\x00\x00\x00/\x00\x00\x00\x00\x00\x00\x000\x00\x00\x00\x00\x00\x00\x001\x00\x00\x00\x00\x00\x00\x002\x00\x00\x00\x00\x00\x00\x003\x00\x00\x00\x00\x00\x00\x004\x00\x00\x00\x00\x00\x00\x005\x00\x00\x00\x00\x00\x00\x006\x00\x00\x00\x00\x00\x00\x007\x00\x00\x00\x00\x00\x00\x00'
p197
tp198
bsg191
g122
sasstp199
bsb.