ccopy_reg
_reconstructor
p0
(cpandas.core.frame
DataFrame
p1
c__builtin__
object
p2
Ntp3
Rp4
(dp5
S'_metadata'
p6
(lp7
sS'_typ'
p8
S'dataframe'
p9
sS'_data'
p10
g0
(cpandas.core.internals
BlockManager
p11
g2
Ntp12
Rp13
((lp14
cpandas.core.indexes.base
_new_Index
p15
(cpandas.core.indexes.base
Index
p16
(dp17
S'data'
p18
cnumpy.core.multiarray
_reconstruct
p19
(cnumpy
ndarray
p20
(I0
tp21
S'b'
p22
tp23
Rp24
(I1
(I56
tp25
cnumpy
dtype
p26
(S'O8'
p27
I0
I1
tp28
Rp29
(I3
S'|'
p30
NNNI-1
I-1
I63
tp31
bI00
(lp32
S'year'
p33
aS'type'
p34
aS'procOriginal'
p35
aS'proc'
p36
aS'proc_s0'
p37
aS'cat'
p38
aS'inputWSFile'
p39
aS'nominalDataName'
p40
aS'modelWSFile'
p41
aS'model'
p42
aS'rate'
p43
aS'nominal_yield'
p44
aS'sumw2'
p45
aS'nominal_yield_COWCorr'
p46
aS'photon_id_sf_Diphoton_Photon__up_yield'
p47
aS'photon_id_sf_Diphoton_Photon__down_yield'
p48
aS'photon_presel_sf_Diphoton_Photon__up_yield'
p49
aS'photon_presel_sf_Diphoton_Photon__down_yield'
p50
aS'electron_veto_sf_Diphoton_Photon__up_yield'
p51
aS'electron_veto_sf_Diphoton_Photon__down_yield'
p52
aS'trigger_sf__up_yield'
p53
aS'trigger_sf__down_yield'
p54
aS'L1_prefiring_sf__up_yield'
p55
aS'L1_prefiring_sf__down_yield'
p56
aS'puWeight__up_yield'
p57
aS'puWeight__down_yield'
p58
aS'btag_deepjet_sf_SelectedbJet_jes__up_yield'
p59
aS'btag_deepjet_sf_SelectedbJet_jes__down_yield'
p60
aS'btag_deepjet_sf_SelectedbJet_lf__up_yield'
p61
aS'btag_deepjet_sf_SelectedbJet_lf__down_yield'
p62
aS'btag_deepjet_sf_SelectedbJet_hfstats1__up_yield'
p63
aS'btag_deepjet_sf_SelectedbJet_hfstats1__down_yield'
p64
aS'btag_deepjet_sf_SelectedbJet_hfstats2__up_yield'
p65
aS'btag_deepjet_sf_SelectedbJet_hfstats2__down_yield'
p66
aS'btag_deepjet_sf_SelectedbJet_cferr1__up_yield'
p67
aS'btag_deepjet_sf_SelectedbJet_cferr1__down_yield'
p68
aS'btag_deepjet_sf_SelectedbJet_cferr2__up_yield'
p69
aS'btag_deepjet_sf_SelectedbJet_cferr2__down_yield'
p70
aS'btag_deepjet_sf_SelectedbJet_hf__up_yield'
p71
aS'btag_deepjet_sf_SelectedbJet_hf__down_yield'
p72
aS'btag_deepjet_sf_SelectedbJet_lfstats1__up_yield'
p73
aS'btag_deepjet_sf_SelectedbJet_lfstats1__down_yield'
p74
aS'btag_deepjet_sf_SelectedbJet_lfstats2__up_yield'
p75
aS'btag_deepjet_sf_SelectedbJet_lfstats2__down_yield'
p76
aS'JES_up_yield'
p77
aS'JES_down_yield'
p78
aS'JER_up_yield'
p79
aS'JER_down_yield'
p80
aS'FJER_up_yield'
p81
aS'FJER_down_yield'
p82
aS'FJES_up_yield'
p83
aS'FJES_down_yield'
p84
aS'FJHEM_up_yield'
p85
aS'FJHEM_down_yield'
p86
aS'JetHEM_up_yield'
p87
aS'JetHEM_down_yield'
p88
atp89
bsS'name'
p90
Nstp91
Rp92
ag15
(cpandas.core.indexes.numeric
Int64Index
p93
(dp94
g18
g19
(g20
(I0
tp95
g22
tp96
Rp97
(I1
(I6
tp98
g26
(S'i8'
p99
I0
I1
tp100
Rp101
(I3
S'<'
p102
NNNI-1
I-1
I0
tp103
bI00
S'\x00\x00\x00\x00\x00\x00\x00\x00\x01\x00\x00\x00\x00\x00\x00\x00\x02\x00\x00\x00\x00\x00\x00\x00\x03\x00\x00\x00\x00\x00\x00\x00\x04\x00\x00\x00\x00\x00\x00\x00\x05\x00\x00\x00\x00\x00\x00\x00'
p104
tp105
bsg90
Nstp106
Rp107
a(lp108
g19
(g20
(I0
tp109
g22
tp110
Rp111
(I1
(I1
I6
tp112
g26
(S'f8'
p113
I0
I1
tp114
Rp115
(I3
S'<'
p116
NNNI-1
I-1
I0
tp117
bI00
S'\x00\x00\x00\x00\xc06\xed@\x00\x00\x00\x00\x00A\xe4@\x00\x00\x00\x00\x00\x06\xd3@\x00\x00\x00\x00\x00^\xd0@\x00\x00\x00\x00\x00\x00\xf0?\x00\x00\x00\x00\x00\x00\xf0\xbf'
p118
tp119
bag19
(g20
(I0
tp120
g22
tp121
Rp122
(I1
(I55
I6
tp123
g29
I00
(lp124
S'2018'
p125
aS'2017'
p126
aS'2016pre'
p127
aS'2016post'
p128
aS'merged'
p129
ag129
aS'sig'
p130
ag130
ag130
ag130
aS'bkg'
p131
ag18
aS'gghh'
p132
ag132
ag132
ag132
aS'bkg_mass'
p133
aS'data_obs'
p134
aS'gghh_2018_hgg'
p135
aS'gghh_2017_hgg'
p136
aS'gghh_2016pre_hgg'
p137
aS'gghh_2016post_hgg'
p138
ag133
ag134
ag132
ag132
ag132
ag132
aS'-'
p139
ag139
aS'boosted_cat0'
p140
ag140
ag140
ag140
ag140
ag140
aS'/eos/cms/store/group/phys_higgs/cmshgg/zhjie/output/output_1000_boost/opt/2018/root/addsys/ws_gghh_cat0_170/output_NMSSM_XToYHTo2B2G_MX-1000_MY-170_cat0_2018_M125_pythia8_gghh.root'
p141
aS'/eos/cms/store/group/phys_higgs/cmshgg/zhjie/output/output_1000_boost/opt/2017/root/addsys/ws_gghh_cat0_170/output_NMSSM_XToYHTo2B2G_MX-1000_MY-170_cat0_2017_M125_pythia8_gghh.root'
p142
aS'/eos/cms/store/group/phys_higgs/cmshgg/zhjie/output/output_1000_boost/opt/2016pre/root/addsys/ws_gghh_cat0_170/output_NMSSM_XToYHTo2B2G_MX-1000_MY-170_cat0_2016pre_M125_pythia8_gghh.root'
p143
aS'/eos/cms/store/group/phys_higgs/cmshgg/zhjie/output/output_1000_boost/opt/2016post/root/addsys/ws_gghh_cat0_170/output_NMSSM_XToYHTo2B2G_MX-1000_MY-170_cat0_2016post_M125_pythia8_gghh.root'
p144
ag139
ag139
aS'gghh_125_13TeV_boosted_cat0'
p145
aS'gghh_125_13TeV_boosted_cat0'
p146
aS'gghh_125_13TeV_boosted_cat0'
p147
aS'gghh_125_13TeV_boosted_cat0'
p148
ag139
ag139
aS'/eos/user/z/zhjie/CMSSW_10_2_13/src/flashggFinalFit/Signal/outdir_packaged_mergeyears_boost_masscut_1000_M170_cat0/CMS-HGG_sigfit_packaged_boosted_cat0.root'
p149
aS'/eos/user/z/zhjie/CMSSW_10_2_13/src/flashggFinalFit/Signal/outdir_packaged_mergeyears_boost_masscut_1000_M170_cat0/CMS-HGG_sigfit_packaged_boosted_cat0.root'
p150
aS'/eos/user/z/zhjie/CMSSW_10_2_13/src/flashggFinalFit/Signal/outdir_packaged_mergeyears_boost_masscut_1000_M170_cat0/CMS-HGG_sigfit_packaged_boosted_cat0.root'
p151
aS'/eos/user/z/zhjie/CMSSW_10_2_13/src/flashggFinalFit/Signal/outdir_packaged_mergeyears_boost_masscut_1000_M170_cat0/CMS-HGG_sigfit_packaged_boosted_cat0.root'
p152
aS'/eos/cms/store/group/phys_higgs/cmshgg/zhjie/output/output_1000_boost/opt/data/root/ws_cat0_170/CMS-HGG_multipdf_boosted_cat0.root'
p153
ag153
aS'wsig_13TeV:hggpdfsmrel_gghh_2018_boosted_cat0_13TeV'
p154
aS'wsig_13TeV:hggpdfsmrel_gghh_2017_boosted_cat0_13TeV'
p155
aS'wsig_13TeV:hggpdfsmrel_gghh_2016pre_boosted_cat0_13TeV'
p156
aS'wsig_13TeV:hggpdfsmrel_gghh_2016post_boosted_cat0_13TeV'
p157
aS'multipdf:CMS_hgg_boosted_cat0_13TeV_bkgshape'
p158
aS'multipdf:roohist_data_mass_boosted_cat0'
p159
aF0.10865562016705411
aF0.10442289476915848
aF0.11423091057015537
aF0.11207702341199441
ag139
ag139
aF3.024991403508625e-07
aF2.4733340404591055e-07
aF6.408265254613025e-07
aF5.794231723081114e-07
ag139
ag139
aF0.10865562016705411
aF0.10442289476915848
aF0.11423091057015537
aF0.11207702341199441
ag139
ag139
aF0.11175300993109258
aF0.1096022941139975
aF0.11755871046902129
aF0.1153672695912811
ag139
ag139
aF0.10560053328921244
aF0.09936073560619749
aF0.11095142344458145
aF0.10883295242979166
ag139
ag139
aF0.1137389618044185
aF0.10875807658462003
aF0.11905183607704942
aF0.11681400038161684
ag139
ag139
aF0.10368852507528453
aF0.10017601968613823
aF0.10950965658455498
aF0.10743809764184539
ag139
ag139
aF0.10879788035033112
aF0.10465523585663145
aF0.11440644061339694
aF0.11224963764864578
ag139
ag139
aF0.10851347191256963
aF0.10419084085414501
aF0.11405552936607648
aF0.11190455605289397
ag139
ag139
aF0.10888434369529683
aF0.10466616864353875
aF0.11446737039579331
aF0.1123091578718732
ag139
ag139
aF0.10842714097931791
aF0.10417989514351719
aF0.11399469656526678
aF0.1118451303498876
ag139
ag139
aF0.10865562016705411
aF0.10372898597385861
aF0.11374624299719954
aF0.11159852155882688
ag139
ag139
aF0.10865562016705411
aF0.10510744732477781
aF0.11471529917937971
aF0.11255568178780198
ag139
ag139
aF0.10834804967157169
aF0.10436850874019755
aF0.11375655886699092
aF0.11182828118646317
ag139
ag139
aF0.10890038250878914
aF0.10448761578178757
aF0.11461619887496115
aF0.11224826077941838
ag139
ag139
aF0.1081175608009355
aF0.10373843149211746
aF0.11389305209610094
aF0.1116823403719002
ag139
ag139
aF0.10916275075284053
aF0.10521541889459975
aF0.11507373963086423
aF0.11286160418266103
ag139
ag139
aF0.11052425651062509
aF0.10629997353067722
aF0.11723892646763648
aF0.11508628980328028
ag139
ag139
aF0.10509246335894581
aF0.10097427637882687
aF0.10934978392382894
aF0.10704004633898613
ag139
ag139
aF0.10826706506185461
aF0.10404488911996422
aF0.11308672608522584
aF0.11065492881914334
ag139
ag139
aF0.10895777032187623
aF0.10468240895222097
aF0.11513036806541903
aF0.11319693258058046
ag139
ag139
aF0.10792247245122419
aF0.10358144195653202
aF0.11280180299989002
aF0.11046392766310364
ag139
ag139
aF0.10937434922048972
aF0.1052402085689039
aF0.11556310000421724
aF0.11361016196903174
ag139
ag139
aF0.10871977716225563
aF0.10449861425839918
aF0.11431244171648329
aF0.11215715436476269
ag139
ag139
aF0.10858282471841997
aF0.10433920192719583
aF0.11413725865885703
aF0.11198425413571904
ag139
ag139
aF0.10867768277167743
aF0.10445563617825046
aF0.1142609485190043
aF0.1121183700697424
ag139
ag139
aF0.10862956642888759
aF0.10438750748383012
aF0.11419325130811028
aF0.11202914587073237
ag139
ag139
aF0.1081943467173819
aF0.10388219778214021
aF0.11356056737269107
aF0.11152291658933189
ag139
ag139
aF0.10913194510199893
aF0.10494501399578712
aF0.11490427849807965
aF0.11262762655888933
ag139
ag139
aF0.10863560462353263
aF0.10439881006794575
aF0.11415713151449491
aF0.11201555958609569
ag139
ag139
aF0.1086789076787245
aF0.10444558019349862
aF0.11430252455659658
aF0.1121348223110364
ag139
ag139
aF0.10858671413835719
aF0.10434699721516623
aF0.11407251381390496
aF0.11195693726977406
ag139
ag139
aF0.10873225103852686
aF0.1045015620360146
aF0.11439364914951122
aF0.11220021500650314
ag139
ag139
aF0.10907469486839191
aF0.10485400131984703
aF0.11463431339748877
aF0.11249146964102553
ag139
ag139
aF0.10916636611431697
aF0.10491658640550387
aF0.11466575241227812
aF0.11258123586218681
ag139
ag139
aF0.10911266466252736
aF0.10486905031487549
aF0.11465349090057816
aF0.11254921950496659
ag139
ag139
aF0.10913916035005476
aF0.10490880231598855
aF0.11465002381181462
aF0.1125514837813719
ag139
ag139
aF0.108421515651412
aF0.10409057363103756
aF0.11405989725935636
aF0.11196717928791923
ag139
ag139
aF0.10851041647987414
aF0.10421836434199049
aF0.11412165831513282
aF0.11204735451606071
ag139
ag139
aF0.10853210004288398
aF0.10419077536896752
aF0.1141810166335505
aF0.11205238922160733
ag139
ag139
aF0.10838697137226606
aF0.10408731367576456
aF0.1140149535814917
aF0.1119662859527865
ag139
ag139
aF0.1084550410423618
aF0.10442289476915936
aF0.11423091057015564
aF0.112077023411994
ag139
ag139
aF0.10843055765736727
aF0.10442289476915936
aF0.11423091057015564
aF0.112077023411994
ag139
ag139
aF0.10912638417170496
aF0.10442289476915936
aF0.11423091057015564
aF0.112077023411994
ag139
ag139
aF0.10912832368963309
aF0.10442289476915936
aF0.11423091057015564
aF0.112077023411994
ag139
ag139
atp160
ba(lp161
g15
(g16
(dp162
g18
g19
(g20
(I0
tp163
g22
tp164
Rp165
(I1
(I1
tp166
g29
I00
(lp167
g43
atp168
bsg90
Nstp169
Rp170
ag15
(g16
(dp171
g18
g19
(g20
(I0
tp172
g22
tp173
Rp174
(I1
(I55
tp175
g29
I00
(lp176
g33
ag34
ag35
ag36
ag37
ag38
ag39
ag40
ag41
ag42
ag44
ag45
ag46
ag47
ag48
ag49
ag50
ag51
ag52
ag53
ag54
ag55
ag56
ag57
ag58
ag59
ag60
ag61
ag62
ag63
ag64
ag65
ag66
ag67
ag68
ag69
ag70
ag71
ag72
ag73
ag74
ag75
ag76
ag77
ag78
ag79
ag80
ag81
ag82
ag83
ag84
ag85
ag86
ag87
ag88
atp177
bsg90
Nstp178
Rp179
a(dp180
S'0.14.1'
p181
(dp182
S'axes'
p183
g14
sS'blocks'
p184
(lp185
(dp186
S'mgr_locs'
p187
c__builtin__
slice
p188
(I10
I11
I1
tp189
Rp190
sS'values'
p191
g111
sa(dp192
g187
g19
(g20
(I0
tp193
g22
tp194
Rp195
(I1
(I55
tp196
g101
I00
S'\x00\x00\x00\x00\x00\x00\x00\x00\x01\x00\x00\x00\x00\x00\x00\x00\x02\x00\x00\x00\x00\x00\x00\x00\x03\x00\x00\x00\x00\x00\x00\x00\x04\x00\x00\x00\x00\x00\x00\x00\x05\x00\x00\x00\x00\x00\x00\x00\x06\x00\x00\x00\x00\x00\x00\x00\x07\x00\x00\x00\x00\x00\x00\x00\x08\x00\x00\x00\x00\x00\x00\x00\t\x00\x00\x00\x00\x00\x00\x00\x0b\x00\x00\x00\x00\x00\x00\x00\x0c\x00\x00\x00\x00\x00\x00\x00\r\x00\x00\x00\x00\x00\x00\x00\x0e\x00\x00\x00\x00\x00\x00\x00\x0f\x00\x00\x00\x00\x00\x00\x00\x10\x00\x00\x00\x00\x00\x00\x00\x11\x00\x00\x00\x00\x00\x00\x00\x12\x00\x00\x00\x00\x00\x00\x00\x13\x00\x00\x00\x00\x00\x00\x00\x14\x00\x00\x00\x00\x00\x00\x00\x15\x00\x00\x00\x00\x00\x00\x00\x16\x00\x00\x00\x00\x00\x00\x00\x17\x00\x00\x00\x00\x00\x00\x00\x18\x00\x00\x00\x00\x00\x00\x00\x19\x00\x00\x00\x00\x00\x00\x00\x1a\x00\x00\x00\x00\x00\x00\x00\x1b\x00\x00\x00\x00\x00\x00\x00\x1c\x00\x00\x00\x00\x00\x00\x00\x1d\x00\x00\x00\x00\x00\x00\x00\x1e\x00\x00\x00\x00\x00\x00\x00\x1f\x00\x00\x00\x00\x00\x00\x00 \x00\x00\x00\x00\x00\x00\x00!\x00\x00\x00\x00\x00\x00\x00"\x00\x00\x00\x00\x00\x00\x00#\x00\x00\x00\x00\x00\x00\x00$\x00\x00\x00\x00\x00\x00\x00%\x00\x00\x00\x00\x00\x00\x00&\x00\x00\x00\x00\x00\x00\x00\'\x00\x00\x00\x00\x00\x00\x00(\x00\x00\x00\x00\x00\x00\x00)\x00\x00\x00\x00\x00\x00\x00*\x00\x00\x00\x00\x00\x00\x00+\x00\x00\x00\x00\x00\x00\x00,\x00\x00\x00\x00\x00\x00\x00-\x00\x00\x00\x00\x00\x00\x00.\x00\x00\x00\x00\x00\x00\x00/\x00\x00\x00\x00\x00\x00\x000\x00\x00\x00\x00\x00\x00\x001\x00\x00\x00\x00\x00\x00\x002\x00\x00\x00\x00\x00\x00\x003\x00\x00\x00\x00\x00\x00\x004\x00\x00\x00\x00\x00\x00\x005\x00\x00\x00\x00\x00\x00\x006\x00\x00\x00\x00\x00\x00\x007\x00\x00\x00\x00\x00\x00\x00'
p197
tp198
bsg191
g122
sasstp199
bsb.