ccopy_reg
_reconstructor
p0
(cpandas.core.frame
DataFrame
p1
c__builtin__
object
p2
Ntp3
Rp4
(dp5
S'_metadata'
p6
(lp7
sS'_typ'
p8
S'dataframe'
p9
sS'_data'
p10
g0
(cpandas.core.internals
BlockManager
p11
g2
Ntp12
Rp13
((lp14
cpandas.core.indexes.base
_new_Index
p15
(cpandas.core.indexes.base
Index
p16
(dp17
S'data'
p18
cnumpy.core.multiarray
_reconstruct
p19
(cnumpy
ndarray
p20
(I0
tp21
S'b'
p22
tp23
Rp24
(I1
(I56
tp25
cnumpy
dtype
p26
(S'O8'
p27
I0
I1
tp28
Rp29
(I3
S'|'
p30
NNNI-1
I-1
I63
tp31
bI00
(lp32
S'year'
p33
aS'type'
p34
aS'procOriginal'
p35
aS'proc'
p36
aS'proc_s0'
p37
aS'cat'
p38
aS'inputWSFile'
p39
aS'nominalDataName'
p40
aS'modelWSFile'
p41
aS'model'
p42
aS'rate'
p43
aS'nominal_yield'
p44
aS'sumw2'
p45
aS'nominal_yield_COWCorr'
p46
aS'photon_id_sf_Diphoton_Photon__up_yield'
p47
aS'photon_id_sf_Diphoton_Photon__down_yield'
p48
aS'photon_presel_sf_Diphoton_Photon__up_yield'
p49
aS'photon_presel_sf_Diphoton_Photon__down_yield'
p50
aS'electron_veto_sf_Diphoton_Photon__up_yield'
p51
aS'electron_veto_sf_Diphoton_Photon__down_yield'
p52
aS'trigger_sf__up_yield'
p53
aS'trigger_sf__down_yield'
p54
aS'L1_prefiring_sf__up_yield'
p55
aS'L1_prefiring_sf__down_yield'
p56
aS'puWeight__up_yield'
p57
aS'puWeight__down_yield'
p58
aS'btag_deepjet_sf_SelectedbJet_jes__up_yield'
p59
aS'btag_deepjet_sf_SelectedbJet_jes__down_yield'
p60
aS'btag_deepjet_sf_SelectedbJet_lf__up_yield'
p61
aS'btag_deepjet_sf_SelectedbJet_lf__down_yield'
p62
aS'btag_deepjet_sf_SelectedbJet_hfstats1__up_yield'
p63
aS'btag_deepjet_sf_SelectedbJet_hfstats1__down_yield'
p64
aS'btag_deepjet_sf_SelectedbJet_hfstats2__up_yield'
p65
aS'btag_deepjet_sf_SelectedbJet_hfstats2__down_yield'
p66
aS'btag_deepjet_sf_SelectedbJet_cferr1__up_yield'
p67
aS'btag_deepjet_sf_SelectedbJet_cferr1__down_yield'
p68
aS'btag_deepjet_sf_SelectedbJet_cferr2__up_yield'
p69
aS'btag_deepjet_sf_SelectedbJet_cferr2__down_yield'
p70
aS'btag_deepjet_sf_SelectedbJet_hf__up_yield'
p71
aS'btag_deepjet_sf_SelectedbJet_hf__down_yield'
p72
aS'btag_deepjet_sf_SelectedbJet_lfstats1__up_yield'
p73
aS'btag_deepjet_sf_SelectedbJet_lfstats1__down_yield'
p74
aS'btag_deepjet_sf_SelectedbJet_lfstats2__up_yield'
p75
aS'btag_deepjet_sf_SelectedbJet_lfstats2__down_yield'
p76
aS'JES_up_yield'
p77
aS'JES_down_yield'
p78
aS'JER_up_yield'
p79
aS'JER_down_yield'
p80
aS'FJER_up_yield'
p81
aS'FJER_down_yield'
p82
aS'FJES_up_yield'
p83
aS'FJES_down_yield'
p84
aS'FJHEM_up_yield'
p85
aS'FJHEM_down_yield'
p86
aS'JetHEM_up_yield'
p87
aS'JetHEM_down_yield'
p88
atp89
bsS'name'
p90
Nstp91
Rp92
ag15
(cpandas.core.indexes.numeric
Int64Index
p93
(dp94
g18
g19
(g20
(I0
tp95
g22
tp96
Rp97
(I1
(I6
tp98
g26
(S'i8'
p99
I0
I1
tp100
Rp101
(I3
S'<'
p102
NNNI-1
I-1
I0
tp103
bI00
S'\x00\x00\x00\x00\x00\x00\x00\x00\x01\x00\x00\x00\x00\x00\x00\x00\x02\x00\x00\x00\x00\x00\x00\x00\x03\x00\x00\x00\x00\x00\x00\x00\x04\x00\x00\x00\x00\x00\x00\x00\x05\x00\x00\x00\x00\x00\x00\x00'
p104
tp105
bsg90
Nstp106
Rp107
a(lp108
g19
(g20
(I0
tp109
g22
tp110
Rp111
(I1
(I1
I6
tp112
g26
(S'f8'
p113
I0
I1
tp114
Rp115
(I3
S'<'
p116
NNNI-1
I-1
I0
tp117
bI00
S'\x00\x00\x00\x00\xc06\xed@\x00\x00\x00\x00\x00A\xe4@\x00\x00\x00\x00\x00\x06\xd3@\x00\x00\x00\x00\x00^\xd0@\x00\x00\x00\x00\x00\x00\xf0?\x00\x00\x00\x00\x00\x00\xf0\xbf'
p118
tp119
bag19
(g20
(I0
tp120
g22
tp121
Rp122
(I1
(I55
I6
tp123
g29
I00
(lp124
S'2018'
p125
aS'2017'
p126
aS'2016pre'
p127
aS'2016post'
p128
aS'merged'
p129
ag129
aS'sig'
p130
ag130
ag130
ag130
aS'bkg'
p131
ag18
aS'gghh'
p132
ag132
ag132
ag132
aS'bkg_mass'
p133
aS'data_obs'
p134
aS'gghh_2018_hgg'
p135
aS'gghh_2017_hgg'
p136
aS'gghh_2016pre_hgg'
p137
aS'gghh_2016post_hgg'
p138
ag133
ag134
ag132
ag132
ag132
ag132
aS'-'
p139
ag139
aS'boosted_cat1'
p140
ag140
ag140
ag140
ag140
ag140
aS'/eos/cms/store/group/phys_higgs/cmshgg/zhjie/output/output_1000_boost/opt/2018/root/addsys/ws_gghh_cat1_170/output_NMSSM_XToYHTo2B2G_MX-1000_MY-170_cat1_2018_M125_pythia8_gghh.root'
p141
aS'/eos/cms/store/group/phys_higgs/cmshgg/zhjie/output/output_1000_boost/opt/2017/root/addsys/ws_gghh_cat1_170/output_NMSSM_XToYHTo2B2G_MX-1000_MY-170_cat1_2017_M125_pythia8_gghh.root'
p142
aS'/eos/cms/store/group/phys_higgs/cmshgg/zhjie/output/output_1000_boost/opt/2016pre/root/addsys/ws_gghh_cat1_170/output_NMSSM_XToYHTo2B2G_MX-1000_MY-170_cat1_2016pre_M125_pythia8_gghh.root'
p143
aS'/eos/cms/store/group/phys_higgs/cmshgg/zhjie/output/output_1000_boost/opt/2016post/root/addsys/ws_gghh_cat1_170/output_NMSSM_XToYHTo2B2G_MX-1000_MY-170_cat1_2016post_M125_pythia8_gghh.root'
p144
ag139
ag139
aS'gghh_125_13TeV_boosted_cat1'
p145
aS'gghh_125_13TeV_boosted_cat1'
p146
aS'gghh_125_13TeV_boosted_cat1'
p147
aS'gghh_125_13TeV_boosted_cat1'
p148
ag139
ag139
aS'/eos/user/z/zhjie/CMSSW_10_2_13/src/flashggFinalFit/Signal/outdir_packaged_mergeyears_boost_masscut_1000_M170_cat1/CMS-HGG_sigfit_packaged_boosted_cat1.root'
p149
aS'/eos/user/z/zhjie/CMSSW_10_2_13/src/flashggFinalFit/Signal/outdir_packaged_mergeyears_boost_masscut_1000_M170_cat1/CMS-HGG_sigfit_packaged_boosted_cat1.root'
p150
aS'/eos/user/z/zhjie/CMSSW_10_2_13/src/flashggFinalFit/Signal/outdir_packaged_mergeyears_boost_masscut_1000_M170_cat1/CMS-HGG_sigfit_packaged_boosted_cat1.root'
p151
aS'/eos/user/z/zhjie/CMSSW_10_2_13/src/flashggFinalFit/Signal/outdir_packaged_mergeyears_boost_masscut_1000_M170_cat1/CMS-HGG_sigfit_packaged_boosted_cat1.root'
p152
aS'/eos/cms/store/group/phys_higgs/cmshgg/zhjie/output/output_1000_boost/opt/data/root/ws_cat1_170/CMS-HGG_multipdf_boosted_cat1.root'
p153
ag153
aS'wsig_13TeV:hggpdfsmrel_gghh_2018_boosted_cat1_13TeV'
p154
aS'wsig_13TeV:hggpdfsmrel_gghh_2017_boosted_cat1_13TeV'
p155
aS'wsig_13TeV:hggpdfsmrel_gghh_2016pre_boosted_cat1_13TeV'
p156
aS'wsig_13TeV:hggpdfsmrel_gghh_2016post_boosted_cat1_13TeV'
p157
aS'multipdf:CMS_hgg_boosted_cat1_13TeV_bkgshape'
p158
aS'multipdf:roohist_data_mass_boosted_cat1'
p159
aF0.045810498044405214
aF0.04621064647201211
aF0.04479607601320105
aF0.04526201752315489
ag139
ag139
aF1.371268658968216e-07
aF1.1718263330655208e-07
aF2.700825262687414e-07
aF2.5153527305553184e-07
ag139
ag139
aF0.045810498044405214
aF0.04621064647201211
aF0.04479607601320105
aF0.04526201752315489
ag139
ag139
aF0.04712315788345421
aF0.04850448852051861
aF0.04611948039967848
aF0.04657756075381473
ag139
ag139
aF0.04451599970104326
aF0.0439686904761667
aF0.043492098279658976
aF0.043964771279722904
ag139
ag139
aF0.047951005791038864
aF0.04812621681784665
aF0.04668469272998165
aF0.047174962480604155
ag139
ag139
aF0.043718885910866694
aF0.044334047629156645
aF0.04294647121870526
aF0.043388669893660914
ag139
ag139
aF0.045872285329523275
aF0.04631552211274695
aF0.04486606458765641
aF0.0453334475695157
ag139
ag139
aF0.04574876094951429
aF0.04610590546024403
aF0.04472614728926646
aF0.04519064922855304
ag139
ag139
aF0.045907585425734074
aF0.046319124973935887
aF0.04488874707337467
aF0.04535589504477694
ag139
ag139
aF0.045713515023473796
aF0.04610229101011985
aF0.04470350120682359
aF0.04516823780422236
ag139
ag139
aF0.045810498044405214
aF0.04588984713794264
aF0.04457895239693303
aF0.045046367757139515
ag139
ag139
aF0.045810498044405214
aF0.04652835696125073
aF0.04501381262212046
aF0.04547770608743814
ag139
ag139
aF0.04598097368969084
aF0.04623911187111443
aF0.04483153968804824
aF0.0453121787794544
ag139
ag139
aF0.04568073088395551
aF0.04621784059276755
aF0.044763903450659386
aF0.04521650751048793
ag139
ag139
aF0.04565781835338857
aF0.046055858621424
aF0.0447487746721502
aF0.04518243102569877
ag139
ag139
aF0.04594543399681701
aF0.04638987323946477
aF0.044927403194489304
aF0.0453695577956084
ag139
ag139
aF0.04573094341348654
aF0.04623999148304207
aF0.04485030566487732
aF0.04533210037019408
ag139
ag139
aF0.045212224113675537
aF0.04550806441382898
aF0.04403148054760385
aF0.04440614732632474
ag139
ag139
aF0.04585061951849406
aF0.04626712681125322
aF0.044784495777706546
aF0.045169879551011594
ag139
ag139
aF0.045737020222300265
aF0.046104497272907524
aF0.044735253975528966
aF0.0452456035206335
ag139
ag139
aF0.045516698755169734
aF0.04585101512820377
aF0.04429683309976983
aF0.04471509720748036
ag139
ag139
aF0.04609688894738818
aF0.046557127998857244
aF0.045266496168917335
aF0.045779931473194556
ag139
ag139
aF0.04589272176165161
aF0.04629259495328865
aF0.044878691783497106
aF0.04535480375766246
ag139
ag139
aF0.04572022398484811
aF0.04612061190286157
aF0.044704211190632566
aF0.04515837261570181
ag139
ag139
aF0.04585176773536825
aF0.046243406375136624
aF0.04483227627956594
aF0.045310251428171744
ag139
ag139
aF0.04576541873859527
aF0.046174550227516875
aF0.044753771293982794
aF0.045207690874850756
ag139
ag139
aF0.045444681364577195
aF0.045789416684488486
aF0.04431125112882124
aF0.04484071273956793
ag139
ag139
aF0.046186668249990015
aF0.0466132157804864
aF0.04527816170233659
aF0.04567356851981865
ag139
ag139
aF0.04578858236107257
aF0.04618800758625623
aF0.044732585486444376
aF0.04521451501719251
ag139
ag139
aF0.045834832438588484
aF0.04623116644894954
aF0.044856301259325555
aF0.045305126215168696
ag139
ag139
aF0.045753611224068104
aF0.04614990396428054
aF0.04467529091813872
aF0.04517061491157572
ag139
ag139
aF0.045873013407329896
aF0.0462726750835446
aF0.044918507013590125
aF0.04535360949168018
ag139
ag139
aF0.04592993919321283
aF0.0463748610835637
aF0.04492726749303716
aF0.045400918007286385
ag139
ag139
aF0.04600722121470276
aF0.04643576841905417
aF0.04496131946388076
aF0.045457533024246884
ag139
ag139
aF0.04595401333459565
aF0.04639528037245045
aF0.04495056138674392
aF0.04542885584432947
ag139
ag139
aF0.04597229520459087
aF0.04642711528035448
aF0.04494994252213639
aF0.04543472668494886
ag139
ag139
aF0.04514879987045234
aF0.04564034186940922
aF0.04437915767509993
aF0.044653958288015654
ag139
ag139
aF0.0452293236253547
aF0.0457118299063179
aF0.04443567818328733
aF0.044704637001930024
ag139
ag139
aF0.04530800823287998
aF0.045703482304778324
aF0.044459891142514106
aF0.044778362479091616
ag139
ag139
aF0.0451216848361438
aF0.04562963354290111
aF0.04434984002297682
aF0.04462737227432226
ag139
ag139
aF0.04519467238197797
aF0.04621064647201201
aF0.04479607601320116
aF0.04526201752315483
ag139
ag139
aF0.045171334175432544
aF0.04621064647201201
aF0.04479607601320116
aF0.04526201752315483
ag139
ag139
aF0.04595956907659997
aF0.04621064647201201
aF0.04479607601320116
aF0.04526201752315483
ag139
ag139
aF0.04596707449766441
aF0.04621064647201201
aF0.04479607601320116
aF0.04526201752315483
ag139
ag139
atp160
ba(lp161
g15
(g16
(dp162
g18
g19
(g20
(I0
tp163
g22
tp164
Rp165
(I1
(I1
tp166
g29
I00
(lp167
g43
atp168
bsg90
Nstp169
Rp170
ag15
(g16
(dp171
g18
g19
(g20
(I0
tp172
g22
tp173
Rp174
(I1
(I55
tp175
g29
I00
(lp176
g33
ag34
ag35
ag36
ag37
ag38
ag39
ag40
ag41
ag42
ag44
ag45
ag46
ag47
ag48
ag49
ag50
ag51
ag52
ag53
ag54
ag55
ag56
ag57
ag58
ag59
ag60
ag61
ag62
ag63
ag64
ag65
ag66
ag67
ag68
ag69
ag70
ag71
ag72
ag73
ag74
ag75
ag76
ag77
ag78
ag79
ag80
ag81
ag82
ag83
ag84
ag85
ag86
ag87
ag88
atp177
bsg90
Nstp178
Rp179
a(dp180
S'0.14.1'
p181
(dp182
S'axes'
p183
g14
sS'blocks'
p184
(lp185
(dp186
S'mgr_locs'
p187
c__builtin__
slice
p188
(I10
I11
I1
tp189
Rp190
sS'values'
p191
g111
sa(dp192
g187
g19
(g20
(I0
tp193
g22
tp194
Rp195
(I1
(I55
tp196
g101
I00
S'\x00\x00\x00\x00\x00\x00\x00\x00\x01\x00\x00\x00\x00\x00\x00\x00\x02\x00\x00\x00\x00\x00\x00\x00\x03\x00\x00\x00\x00\x00\x00\x00\x04\x00\x00\x00\x00\x00\x00\x00\x05\x00\x00\x00\x00\x00\x00\x00\x06\x00\x00\x00\x00\x00\x00\x00\x07\x00\x00\x00\x00\x00\x00\x00\x08\x00\x00\x00\x00\x00\x00\x00\t\x00\x00\x00\x00\x00\x00\x00\x0b\x00\x00\x00\x00\x00\x00\x00\x0c\x00\x00\x00\x00\x00\x00\x00\r\x00\x00\x00\x00\x00\x00\x00\x0e\x00\x00\x00\x00\x00\x00\x00\x0f\x00\x00\x00\x00\x00\x00\x00\x10\x00\x00\x00\x00\x00\x00\x00\x11\x00\x00\x00\x00\x00\x00\x00\x12\x00\x00\x00\x00\x00\x00\x00\x13\x00\x00\x00\x00\x00\x00\x00\x14\x00\x00\x00\x00\x00\x00\x00\x15\x00\x00\x00\x00\x00\x00\x00\x16\x00\x00\x00\x00\x00\x00\x00\x17\x00\x00\x00\x00\x00\x00\x00\x18\x00\x00\x00\x00\x00\x00\x00\x19\x00\x00\x00\x00\x00\x00\x00\x1a\x00\x00\x00\x00\x00\x00\x00\x1b\x00\x00\x00\x00\x00\x00\x00\x1c\x00\x00\x00\x00\x00\x00\x00\x1d\x00\x00\x00\x00\x00\x00\x00\x1e\x00\x00\x00\x00\x00\x00\x00\x1f\x00\x00\x00\x00\x00\x00\x00 \x00\x00\x00\x00\x00\x00\x00!\x00\x00\x00\x00\x00\x00\x00"\x00\x00\x00\x00\x00\x00\x00#\x00\x00\x00\x00\x00\x00\x00$\x00\x00\x00\x00\x00\x00\x00%\x00\x00\x00\x00\x00\x00\x00&\x00\x00\x00\x00\x00\x00\x00\'\x00\x00\x00\x00\x00\x00\x00(\x00\x00\x00\x00\x00\x00\x00)\x00\x00\x00\x00\x00\x00\x00*\x00\x00\x00\x00\x00\x00\x00+\x00\x00\x00\x00\x00\x00\x00,\x00\x00\x00\x00\x00\x00\x00-\x00\x00\x00\x00\x00\x00\x00.\x00\x00\x00\x00\x00\x00\x00/\x00\x00\x00\x00\x00\x00\x000\x00\x00\x00\x00\x00\x00\x001\x00\x00\x00\x00\x00\x00\x002\x00\x00\x00\x00\x00\x00\x003\x00\x00\x00\x00\x00\x00\x004\x00\x00\x00\x00\x00\x00\x005\x00\x00\x00\x00\x00\x00\x006\x00\x00\x00\x00\x00\x00\x007\x00\x00\x00\x00\x00\x00\x00'
p197
tp198
bsg191
g122
sasstp199
bsb.