ccopy_reg
_reconstructor
p0
(cpandas.core.frame
DataFrame
p1
c__builtin__
object
p2
Ntp3
Rp4
(dp5
S'_metadata'
p6
(lp7
sS'_typ'
p8
S'dataframe'
p9
sS'_data'
p10
g0
(cpandas.core.internals
BlockManager
p11
g2
Ntp12
Rp13
((lp14
cpandas.core.indexes.base
_new_Index
p15
(cpandas.core.indexes.base
Index
p16
(dp17
S'data'
p18
cnumpy.core.multiarray
_reconstruct
p19
(cnumpy
ndarray
p20
(I0
tp21
S'b'
p22
tp23
Rp24
(I1
(I56
tp25
cnumpy
dtype
p26
(S'O8'
p27
I0
I1
tp28
Rp29
(I3
S'|'
p30
NNNI-1
I-1
I63
tp31
bI00
(lp32
S'year'
p33
aS'type'
p34
aS'procOriginal'
p35
aS'proc'
p36
aS'proc_s0'
p37
aS'cat'
p38
aS'inputWSFile'
p39
aS'nominalDataName'
p40
aS'modelWSFile'
p41
aS'model'
p42
aS'rate'
p43
aS'nominal_yield'
p44
aS'sumw2'
p45
aS'nominal_yield_COWCorr'
p46
aS'photon_id_sf_Diphoton_Photon__up_yield'
p47
aS'photon_id_sf_Diphoton_Photon__down_yield'
p48
aS'photon_presel_sf_Diphoton_Photon__up_yield'
p49
aS'photon_presel_sf_Diphoton_Photon__down_yield'
p50
aS'electron_veto_sf_Diphoton_Photon__up_yield'
p51
aS'electron_veto_sf_Diphoton_Photon__down_yield'
p52
aS'trigger_sf__up_yield'
p53
aS'trigger_sf__down_yield'
p54
aS'L1_prefiring_sf__up_yield'
p55
aS'L1_prefiring_sf__down_yield'
p56
aS'puWeight__up_yield'
p57
aS'puWeight__down_yield'
p58
aS'btag_deepjet_sf_SelectedbJet_jes__up_yield'
p59
aS'btag_deepjet_sf_SelectedbJet_jes__down_yield'
p60
aS'btag_deepjet_sf_SelectedbJet_lf__up_yield'
p61
aS'btag_deepjet_sf_SelectedbJet_lf__down_yield'
p62
aS'btag_deepjet_sf_SelectedbJet_hfstats1__up_yield'
p63
aS'btag_deepjet_sf_SelectedbJet_hfstats1__down_yield'
p64
aS'btag_deepjet_sf_SelectedbJet_hfstats2__up_yield'
p65
aS'btag_deepjet_sf_SelectedbJet_hfstats2__down_yield'
p66
aS'btag_deepjet_sf_SelectedbJet_cferr1__up_yield'
p67
aS'btag_deepjet_sf_SelectedbJet_cferr1__down_yield'
p68
aS'btag_deepjet_sf_SelectedbJet_cferr2__up_yield'
p69
aS'btag_deepjet_sf_SelectedbJet_cferr2__down_yield'
p70
aS'btag_deepjet_sf_SelectedbJet_hf__up_yield'
p71
aS'btag_deepjet_sf_SelectedbJet_hf__down_yield'
p72
aS'btag_deepjet_sf_SelectedbJet_lfstats1__up_yield'
p73
aS'btag_deepjet_sf_SelectedbJet_lfstats1__down_yield'
p74
aS'btag_deepjet_sf_SelectedbJet_lfstats2__up_yield'
p75
aS'btag_deepjet_sf_SelectedbJet_lfstats2__down_yield'
p76
aS'JES_up_yield'
p77
aS'JES_down_yield'
p78
aS'JER_up_yield'
p79
aS'JER_down_yield'
p80
aS'FJER_up_yield'
p81
aS'FJER_down_yield'
p82
aS'FJES_up_yield'
p83
aS'FJES_down_yield'
p84
aS'FJHEM_up_yield'
p85
aS'FJHEM_down_yield'
p86
aS'JetHEM_up_yield'
p87
aS'JetHEM_down_yield'
p88
atp89
bsS'name'
p90
Nstp91
Rp92
ag15
(cpandas.core.indexes.numeric
Int64Index
p93
(dp94
g18
g19
(g20
(I0
tp95
g22
tp96
Rp97
(I1
(I6
tp98
g26
(S'i8'
p99
I0
I1
tp100
Rp101
(I3
S'<'
p102
NNNI-1
I-1
I0
tp103
bI00
S'\x00\x00\x00\x00\x00\x00\x00\x00\x01\x00\x00\x00\x00\x00\x00\x00\x02\x00\x00\x00\x00\x00\x00\x00\x03\x00\x00\x00\x00\x00\x00\x00\x04\x00\x00\x00\x00\x00\x00\x00\x05\x00\x00\x00\x00\x00\x00\x00'
p104
tp105
bsg90
Nstp106
Rp107
a(lp108
g19
(g20
(I0
tp109
g22
tp110
Rp111
(I1
(I1
I6
tp112
g26
(S'f8'
p113
I0
I1
tp114
Rp115
(I3
S'<'
p116
NNNI-1
I-1
I0
tp117
bI00
S'\x00\x00\x00\x00\xc06\xed@\x00\x00\x00\x00\x00A\xe4@\x00\x00\x00\x00\x00\x06\xd3@\x00\x00\x00\x00\x00^\xd0@\x00\x00\x00\x00\x00\x00\xf0?\x00\x00\x00\x00\x00\x00\xf0\xbf'
p118
tp119
bag19
(g20
(I0
tp120
g22
tp121
Rp122
(I1
(I55
I6
tp123
g29
I00
(lp124
S'2018'
p125
aS'2017'
p126
aS'2016pre'
p127
aS'2016post'
p128
aS'merged'
p129
ag129
aS'sig'
p130
ag130
ag130
ag130
aS'bkg'
p131
ag18
aS'gghh'
p132
ag132
ag132
ag132
aS'bkg_mass'
p133
aS'data_obs'
p134
aS'gghh_2018_hgg'
p135
aS'gghh_2017_hgg'
p136
aS'gghh_2016pre_hgg'
p137
aS'gghh_2016post_hgg'
p138
ag133
ag134
ag132
ag132
ag132
ag132
aS'-'
p139
ag139
aS'boosted_cat2'
p140
ag140
ag140
ag140
ag140
ag140
aS'/eos/cms/store/group/phys_higgs/cmshgg/zhjie/output/output_1000_boost/opt/2018/root/addsys/ws_gghh_cat2_80/output_NMSSM_XToYHTo2B2G_MX-1000_MY-80_cat2_2018_M125_pythia8_gghh.root'
p141
aS'/eos/cms/store/group/phys_higgs/cmshgg/zhjie/output/output_1000_boost/opt/2017/root/addsys/ws_gghh_cat2_80/output_NMSSM_XToYHTo2B2G_MX-1000_MY-80_cat2_2017_M125_pythia8_gghh.root'
p142
aS'/eos/cms/store/group/phys_higgs/cmshgg/zhjie/output/output_1000_boost/opt/2016pre/root/addsys/ws_gghh_cat2_80/output_NMSSM_XToYHTo2B2G_MX-1000_MY-80_cat2_2016pre_M125_pythia8_gghh.root'
p143
aS'/eos/cms/store/group/phys_higgs/cmshgg/zhjie/output/output_1000_boost/opt/2016post/root/addsys/ws_gghh_cat2_80/output_NMSSM_XToYHTo2B2G_MX-1000_MY-80_cat2_2016post_M125_pythia8_gghh.root'
p144
ag139
ag139
aS'gghh_125_13TeV_boosted_cat2'
p145
aS'gghh_125_13TeV_boosted_cat2'
p146
aS'gghh_125_13TeV_boosted_cat2'
p147
aS'gghh_125_13TeV_boosted_cat2'
p148
ag139
ag139
aS'/eos/user/z/zhjie/CMSSW_10_2_13/src/flashggFinalFit/Signal/outdir_packaged_mergeyears_boost_masscut_1000_M80_cat2/CMS-HGG_sigfit_packaged_boosted_cat2.root'
p149
aS'/eos/user/z/zhjie/CMSSW_10_2_13/src/flashggFinalFit/Signal/outdir_packaged_mergeyears_boost_masscut_1000_M80_cat2/CMS-HGG_sigfit_packaged_boosted_cat2.root'
p150
aS'/eos/user/z/zhjie/CMSSW_10_2_13/src/flashggFinalFit/Signal/outdir_packaged_mergeyears_boost_masscut_1000_M80_cat2/CMS-HGG_sigfit_packaged_boosted_cat2.root'
p151
aS'/eos/user/z/zhjie/CMSSW_10_2_13/src/flashggFinalFit/Signal/outdir_packaged_mergeyears_boost_masscut_1000_M80_cat2/CMS-HGG_sigfit_packaged_boosted_cat2.root'
p152
aS'/eos/cms/store/group/phys_higgs/cmshgg/zhjie/output/output_1000_boost/opt/data/root/ws_cat2_80/CMS-HGG_multipdf_boosted_cat2.root'
p153
ag153
aS'wsig_13TeV:hggpdfsmrel_gghh_2018_boosted_cat2_13TeV'
p154
aS'wsig_13TeV:hggpdfsmrel_gghh_2017_boosted_cat2_13TeV'
p155
aS'wsig_13TeV:hggpdfsmrel_gghh_2016pre_boosted_cat2_13TeV'
p156
aS'wsig_13TeV:hggpdfsmrel_gghh_2016post_boosted_cat2_13TeV'
p157
aS'multipdf:CMS_hgg_boosted_cat2_13TeV_bkgshape'
p158
aS'multipdf:roohist_data_mass_boosted_cat2'
p159
aF0.027129851399421437
aF0.027993669869636372
aF0.025621352068405732
aF0.025471053287815414
ag139
ag139
aF8.656326773918186e-08
aF7.270121409524993e-08
aF1.2115348717846113e-07
aF1.4029640777045735e-07
ag139
ag139
aF0.027129851399421437
aF0.027993669869636372
aF0.025621352068405732
aF0.025471053287815414
ag139
ag139
aF0.0279110594294694
aF0.02941099471833041
aF0.02637765843547382
aF0.02623468650825453
ag139
ag139
aF0.02635960433344063
aF0.026609876920619217
aF0.024876242482220895
aF0.0247181684806249
ag139
ag139
aF0.02839542517307607
aF0.029148850312912
aF0.026699889652922866
aF0.02654444598131132
ag139
ag139
aF0.02589314562921466
aF0.02686189992474071
aF0.024565062417716384
aF0.024419819159759826
ag139
ag139
aF0.027167176926354238
aF0.02805928325127709
aF0.025662616965630252
aF0.02551186042048967
ag139
ag139
aF0.02709255717779309
aF0.027928144098545594
aF0.025580124511622882
aF0.025430283201724576
ag139
ag139
aF0.02718769337324641
aF0.028060793137495446
aF0.025674831460242263
aF0.025524474852224425
ag139
ag139
aF0.027072071913158
aF0.02792662449605352
aF0.025567928691888134
aF0.025417687938295987
ag139
ag139
aF0.027129851399421437
aF0.027758182698122167
aF0.025489375409230228
aF0.02533899006799728
ag139
ag139
aF0.027129851399421437
aF0.02822787930852147
aF0.025753468302036623
aF0.025603518726751116
ag139
ag139
aF0.027181048421352324
aF0.02796774245685762
aF0.025601023763084322
aF0.025506279872787703
ag139
ag139
aF0.027059849408806465
aF0.028017356297526268
aF0.025652026640158965
aF0.025429499527847635
ag139
ag139
aF0.026945821888526747
aF0.02782599095592684
aF0.02550337271225836
aF0.025377031157950616
ag139
ag139
aF0.027310857148074092
aF0.02819766168833539
aF0.02578996672068513
aF0.02559360703097636
ag139
ag139
aF0.027247082577599224
aF0.028111334139020994
aF0.025749504579897744
aF0.02563099513843004
ag139
ag139
aF0.026687623181280755
aF0.027549271272970813
aF0.02517222240274542
aF0.024961673243624208
ag139
ag139
aF0.027089160330692377
aF0.02795322302889891
aF0.025556853338076106
aF0.025359987998286437
ag139
ag139
aF0.027156987281213046
aF0.028014726970924924
aF0.0256513608090044
aF0.025536981157936692
ag139
ag139
aF0.026998387211628467
aF0.027838460395546986
aF0.025394174241828923
aF0.02522797384693459
ag139
ag139
aF0.02725917533048336
aF0.02814500810175218
aF0.025835618378806352
aF0.025701850681901766
ag139
ag139
aF0.02733966882310812
aF0.028190180041080558
aF0.02580607115716428
aF0.02561590183756922
ag139
ag139
aF0.026902564027894822
aF0.027779361066984965
aF0.02541549027373987
aF0.025310255238546134
ag139
ag139
aF0.02723726609173649
aF0.02808723963055962
aF0.025716980816434927
aF0.02555150022531339
ag139
ag139
aF0.027014054134064852
aF0.02789145260765925
aF0.025511633360820633
aF0.02538179951938641
ag139
ag139
aF0.026715529395793337
aF0.02757760976383104
aF0.025211342997454343
aF0.02507771433665545
ag139
ag139
aF0.02752824827386296
aF0.028372607037628988
aF0.02601374652304981
aF0.02583794247717955
ag139
ag139
aF0.027060710846948346
aF0.027912841241450454
aF0.025522565313745502
aF0.02536847898575453
ag139
ag139
aF0.027198899248580315
aF0.028071816295316004
aF0.025716850788276176
aF0.025570763503845465
ag139
ag139
aF0.027037993669113247
aF0.027893853293502465
aF0.025490901095339462
aF0.025345210030127484
ag139
ag139
aF0.02722474275362794
aF0.028093763896719227
aF0.02575228243203962
aF0.02559691944798943
ag139
ag139
aF0.027221305662561247
aF0.028102963126686944
aF0.025708661717518167
aF0.025545354468122287
ag139
ag139
aF0.027224668970254846
aF0.0281036140700658
aF0.025677960295792435
aF0.02556066047877405
ag139
ag139
aF0.027225013091298395
aF0.028092476701991578
aF0.02568659427891599
aF0.02553642798526394
ag139
ag139
aF0.027224377753105836
aF0.028106731013907205
aF0.02569311931033913
aF0.02555842275123122
ag139
ag139
aF0.026136752970769044
aF0.026720743654334626
aF0.02483231121720603
aF0.02476215026966511
ag139
ag139
aF0.026239148860944642
aF0.02686807505294854
aF0.02486687282481026
aF0.024808139519352942
ag139
ag139
aF0.026315257306625067
aF0.02688158773874506
aF0.02492405065523753
aF0.02487819971539231
ag139
ag139
aF0.026014550408226454
aF0.02672622203411415
aF0.024740855779373676
aF0.024708420764277955
ag139
ag139
aF0.02617745108133133
aF0.027993669869636407
aF0.025621352068405767
aF0.02547105328781552
ag139
ag139
aF0.026114489185383814
aF0.027993669869636407
aF0.025621352068405767
aF0.02547105328781552
ag139
ag139
aF0.0272263850810444
aF0.027993669869636407
aF0.025621352068405767
aF0.02547105328781552
ag139
ag139
aF0.027226028402990966
aF0.027993669869636407
aF0.025621352068405767
aF0.02547105328781552
ag139
ag139
atp160
ba(lp161
g15
(g16
(dp162
g18
g19
(g20
(I0
tp163
g22
tp164
Rp165
(I1
(I1
tp166
g29
I00
(lp167
g43
atp168
bsg90
Nstp169
Rp170
ag15
(g16
(dp171
g18
g19
(g20
(I0
tp172
g22
tp173
Rp174
(I1
(I55
tp175
g29
I00
(lp176
g33
ag34
ag35
ag36
ag37
ag38
ag39
ag40
ag41
ag42
ag44
ag45
ag46
ag47
ag48
ag49
ag50
ag51
ag52
ag53
ag54
ag55
ag56
ag57
ag58
ag59
ag60
ag61
ag62
ag63
ag64
ag65
ag66
ag67
ag68
ag69
ag70
ag71
ag72
ag73
ag74
ag75
ag76
ag77
ag78
ag79
ag80
ag81
ag82
ag83
ag84
ag85
ag86
ag87
ag88
atp177
bsg90
Nstp178
Rp179
a(dp180
S'0.14.1'
p181
(dp182
S'axes'
p183
g14
sS'blocks'
p184
(lp185
(dp186
S'mgr_locs'
p187
c__builtin__
slice
p188
(I10
I11
I1
tp189
Rp190
sS'values'
p191
g111
sa(dp192
g187
g19
(g20
(I0
tp193
g22
tp194
Rp195
(I1
(I55
tp196
g101
I00
S'\x00\x00\x00\x00\x00\x00\x00\x00\x01\x00\x00\x00\x00\x00\x00\x00\x02\x00\x00\x00\x00\x00\x00\x00\x03\x00\x00\x00\x00\x00\x00\x00\x04\x00\x00\x00\x00\x00\x00\x00\x05\x00\x00\x00\x00\x00\x00\x00\x06\x00\x00\x00\x00\x00\x00\x00\x07\x00\x00\x00\x00\x00\x00\x00\x08\x00\x00\x00\x00\x00\x00\x00\t\x00\x00\x00\x00\x00\x00\x00\x0b\x00\x00\x00\x00\x00\x00\x00\x0c\x00\x00\x00\x00\x00\x00\x00\r\x00\x00\x00\x00\x00\x00\x00\x0e\x00\x00\x00\x00\x00\x00\x00\x0f\x00\x00\x00\x00\x00\x00\x00\x10\x00\x00\x00\x00\x00\x00\x00\x11\x00\x00\x00\x00\x00\x00\x00\x12\x00\x00\x00\x00\x00\x00\x00\x13\x00\x00\x00\x00\x00\x00\x00\x14\x00\x00\x00\x00\x00\x00\x00\x15\x00\x00\x00\x00\x00\x00\x00\x16\x00\x00\x00\x00\x00\x00\x00\x17\x00\x00\x00\x00\x00\x00\x00\x18\x00\x00\x00\x00\x00\x00\x00\x19\x00\x00\x00\x00\x00\x00\x00\x1a\x00\x00\x00\x00\x00\x00\x00\x1b\x00\x00\x00\x00\x00\x00\x00\x1c\x00\x00\x00\x00\x00\x00\x00\x1d\x00\x00\x00\x00\x00\x00\x00\x1e\x00\x00\x00\x00\x00\x00\x00\x1f\x00\x00\x00\x00\x00\x00\x00 \x00\x00\x00\x00\x00\x00\x00!\x00\x00\x00\x00\x00\x00\x00"\x00\x00\x00\x00\x00\x00\x00#\x00\x00\x00\x00\x00\x00\x00$\x00\x00\x00\x00\x00\x00\x00%\x00\x00\x00\x00\x00\x00\x00&\x00\x00\x00\x00\x00\x00\x00\'\x00\x00\x00\x00\x00\x00\x00(\x00\x00\x00\x00\x00\x00\x00)\x00\x00\x00\x00\x00\x00\x00*\x00\x00\x00\x00\x00\x00\x00+\x00\x00\x00\x00\x00\x00\x00,\x00\x00\x00\x00\x00\x00\x00-\x00\x00\x00\x00\x00\x00\x00.\x00\x00\x00\x00\x00\x00\x00/\x00\x00\x00\x00\x00\x00\x000\x00\x00\x00\x00\x00\x00\x001\x00\x00\x00\x00\x00\x00\x002\x00\x00\x00\x00\x00\x00\x003\x00\x00\x00\x00\x00\x00\x004\x00\x00\x00\x00\x00\x00\x005\x00\x00\x00\x00\x00\x00\x006\x00\x00\x00\x00\x00\x00\x007\x00\x00\x00\x00\x00\x00\x00'
p197
tp198
bsg191
g122
sasstp199
bsb.