ccopy_reg
_reconstructor
p0
(cpandas.core.frame
DataFrame
p1
c__builtin__
object
p2
Ntp3
Rp4
(dp5
S'_metadata'
p6
(lp7
sS'_typ'
p8
S'dataframe'
p9
sS'_data'
p10
g0
(cpandas.core.internals
BlockManager
p11
g2
Ntp12
Rp13
((lp14
cpandas.core.indexes.base
_new_Index
p15
(cpandas.core.indexes.base
Index
p16
(dp17
S'data'
p18
cnumpy.core.multiarray
_reconstruct
p19
(cnumpy
ndarray
p20
(I0
tp21
S'b'
p22
tp23
Rp24
(I1
(I56
tp25
cnumpy
dtype
p26
(S'O8'
p27
I0
I1
tp28
Rp29
(I3
S'|'
p30
NNNI-1
I-1
I63
tp31
bI00
(lp32
S'year'
p33
aS'type'
p34
aS'procOriginal'
p35
aS'proc'
p36
aS'proc_s0'
p37
aS'cat'
p38
aS'inputWSFile'
p39
aS'nominalDataName'
p40
aS'modelWSFile'
p41
aS'model'
p42
aS'rate'
p43
aS'nominal_yield'
p44
aS'sumw2'
p45
aS'nominal_yield_COWCorr'
p46
aS'photon_id_sf_Diphoton_Photon__up_yield'
p47
aS'photon_id_sf_Diphoton_Photon__down_yield'
p48
aS'photon_presel_sf_Diphoton_Photon__up_yield'
p49
aS'photon_presel_sf_Diphoton_Photon__down_yield'
p50
aS'electron_veto_sf_Diphoton_Photon__up_yield'
p51
aS'electron_veto_sf_Diphoton_Photon__down_yield'
p52
aS'trigger_sf__up_yield'
p53
aS'trigger_sf__down_yield'
p54
aS'L1_prefiring_sf__up_yield'
p55
aS'L1_prefiring_sf__down_yield'
p56
aS'puWeight__up_yield'
p57
aS'puWeight__down_yield'
p58
aS'btag_deepjet_sf_SelectedbJet_jes__up_yield'
p59
aS'btag_deepjet_sf_SelectedbJet_jes__down_yield'
p60
aS'btag_deepjet_sf_SelectedbJet_lf__up_yield'
p61
aS'btag_deepjet_sf_SelectedbJet_lf__down_yield'
p62
aS'btag_deepjet_sf_SelectedbJet_hfstats1__up_yield'
p63
aS'btag_deepjet_sf_SelectedbJet_hfstats1__down_yield'
p64
aS'btag_deepjet_sf_SelectedbJet_hfstats2__up_yield'
p65
aS'btag_deepjet_sf_SelectedbJet_hfstats2__down_yield'
p66
aS'btag_deepjet_sf_SelectedbJet_cferr1__up_yield'
p67
aS'btag_deepjet_sf_SelectedbJet_cferr1__down_yield'
p68
aS'btag_deepjet_sf_SelectedbJet_cferr2__up_yield'
p69
aS'btag_deepjet_sf_SelectedbJet_cferr2__down_yield'
p70
aS'btag_deepjet_sf_SelectedbJet_hf__up_yield'
p71
aS'btag_deepjet_sf_SelectedbJet_hf__down_yield'
p72
aS'btag_deepjet_sf_SelectedbJet_lfstats1__up_yield'
p73
aS'btag_deepjet_sf_SelectedbJet_lfstats1__down_yield'
p74
aS'btag_deepjet_sf_SelectedbJet_lfstats2__up_yield'
p75
aS'btag_deepjet_sf_SelectedbJet_lfstats2__down_yield'
p76
aS'JES_up_yield'
p77
aS'JES_down_yield'
p78
aS'JER_up_yield'
p79
aS'JER_down_yield'
p80
aS'FJER_up_yield'
p81
aS'FJER_down_yield'
p82
aS'FJES_up_yield'
p83
aS'FJES_down_yield'
p84
aS'FJHEM_up_yield'
p85
aS'FJHEM_down_yield'
p86
aS'JetHEM_up_yield'
p87
aS'JetHEM_down_yield'
p88
atp89
bsS'name'
p90
Nstp91
Rp92
ag15
(cpandas.core.indexes.numeric
Int64Index
p93
(dp94
g18
g19
(g20
(I0
tp95
g22
tp96
Rp97
(I1
(I6
tp98
g26
(S'i8'
p99
I0
I1
tp100
Rp101
(I3
S'<'
p102
NNNI-1
I-1
I0
tp103
bI00
S'\x00\x00\x00\x00\x00\x00\x00\x00\x01\x00\x00\x00\x00\x00\x00\x00\x02\x00\x00\x00\x00\x00\x00\x00\x03\x00\x00\x00\x00\x00\x00\x00\x04\x00\x00\x00\x00\x00\x00\x00\x05\x00\x00\x00\x00\x00\x00\x00'
p104
tp105
bsg90
Nstp106
Rp107
a(lp108
g19
(g20
(I0
tp109
g22
tp110
Rp111
(I1
(I1
I6
tp112
g26
(S'f8'
p113
I0
I1
tp114
Rp115
(I3
S'<'
p116
NNNI-1
I-1
I0
tp117
bI00
S'\x00\x00\x00\x00\xc06\xed@\x00\x00\x00\x00\x00A\xe4@\x00\x00\x00\x00\x00\x06\xd3@\x00\x00\x00\x00\x00^\xd0@\x00\x00\x00\x00\x00\x00\xf0?\x00\x00\x00\x00\x00\x00\xf0\xbf'
p118
tp119
bag19
(g20
(I0
tp120
g22
tp121
Rp122
(I1
(I55
I6
tp123
g29
I00
(lp124
S'2018'
p125
aS'2017'
p126
aS'2016pre'
p127
aS'2016post'
p128
aS'merged'
p129
ag129
aS'sig'
p130
ag130
ag130
ag130
aS'bkg'
p131
ag18
aS'gghh'
p132
ag132
ag132
ag132
aS'bkg_mass'
p133
aS'data_obs'
p134
aS'gghh_2018_hgg'
p135
aS'gghh_2017_hgg'
p136
aS'gghh_2016pre_hgg'
p137
aS'gghh_2016post_hgg'
p138
ag133
ag134
ag132
ag132
ag132
ag132
aS'-'
p139
ag139
aS'resolved_cat1'
p140
ag140
ag140
ag140
ag140
ag140
aS'/eos/cms/store/group/phys_higgs/cmshgg/zhjie/output/output_1000/opt/2018/root/addsys/ws_gghh_cat1_450/output_NMSSM_XToYHTo2B2G_MX-1000_MY-450_cat1_2018_M125_pythia8_gghh.root'
p141
aS'/eos/cms/store/group/phys_higgs/cmshgg/zhjie/output/output_1000/opt/2017/root/addsys/ws_gghh_cat1_450/output_NMSSM_XToYHTo2B2G_MX-1000_MY-450_cat1_2017_M125_pythia8_gghh.root'
p142
aS'/eos/cms/store/group/phys_higgs/cmshgg/zhjie/output/output_1000/opt/2016pre/root/addsys/ws_gghh_cat1_450/output_NMSSM_XToYHTo2B2G_MX-1000_MY-450_cat1_2016pre_M125_pythia8_gghh.root'
p143
aS'/eos/cms/store/group/phys_higgs/cmshgg/zhjie/output/output_1000/opt/2016post/root/addsys/ws_gghh_cat1_450/output_NMSSM_XToYHTo2B2G_MX-1000_MY-450_cat1_2016post_M125_pythia8_gghh.root'
p144
ag139
ag139
aS'gghh_125_13TeV_resolved_cat1'
p145
aS'gghh_125_13TeV_resolved_cat1'
p146
aS'gghh_125_13TeV_resolved_cat1'
p147
aS'gghh_125_13TeV_resolved_cat1'
p148
ag139
ag139
aS'/eos/user/z/zhjie/CMSSW_10_2_13/src/flashggFinalFit/Signal/outdir_packaged_mergeyears_1000_M450_cat1/CMS-HGG_sigfit_packaged_resolved_cat1.root'
p149
aS'/eos/user/z/zhjie/CMSSW_10_2_13/src/flashggFinalFit/Signal/outdir_packaged_mergeyears_1000_M450_cat1/CMS-HGG_sigfit_packaged_resolved_cat1.root'
p150
aS'/eos/user/z/zhjie/CMSSW_10_2_13/src/flashggFinalFit/Signal/outdir_packaged_mergeyears_1000_M450_cat1/CMS-HGG_sigfit_packaged_resolved_cat1.root'
p151
aS'/eos/user/z/zhjie/CMSSW_10_2_13/src/flashggFinalFit/Signal/outdir_packaged_mergeyears_1000_M450_cat1/CMS-HGG_sigfit_packaged_resolved_cat1.root'
p152
aS'/eos/cms/store/group/phys_higgs/cmshgg/zhjie/output/output_1000/opt/data/root/ws_cat1_450/CMS-HGG_multipdf_resolved_cat1.root'
p153
ag153
aS'wsig_13TeV:hggpdfsmrel_gghh_2018_resolved_cat1_13TeV'
p154
aS'wsig_13TeV:hggpdfsmrel_gghh_2017_resolved_cat1_13TeV'
p155
aS'wsig_13TeV:hggpdfsmrel_gghh_2016pre_resolved_cat1_13TeV'
p156
aS'wsig_13TeV:hggpdfsmrel_gghh_2016post_resolved_cat1_13TeV'
p157
aS'multipdf:CMS_hgg_resolved_cat1_13TeV_bkgshape'
p158
aS'multipdf:roohist_data_mass_resolved_cat1'
p159
aF0.021802553736015428
aF0.018568928763590564
aF0.016911606894335494
aF0.01720357897840461
ag139
ag139
aF5.7491888038810315e-08
aF4.712140709106299e-08
aF8.197433803455434e-08
aF9.684528079014e-08
ag139
ag139
aF0.021802553736015428
aF0.018568928763590564
aF0.016911606894335494
aF0.01720357897840461
ag139
ag139
aF0.02225257870436138
aF0.019300346183711417
aF0.017340157437038182
aF0.017529410669432713
ag139
ag139
aF0.021357053422561303
aF0.017849695364394336
aF0.0164883172285761
aF0.016880732082842374
ag139
ag139
aF0.02281151010721012
aF0.019313629050848238
aF0.017615501962429145
aF0.017922382266016522
ag139
ag139
aF0.020816433075733803
aF0.017838914149996787
aF0.01622207307633113
aF0.01649949175088862
ag139
ag139
aF0.02184015377637824
aF0.018623499802048898
aF0.016946661002505675
aF0.01723884494756073
ag139
ag139
aF0.021764991005853936
aF0.018514445866847314
aF0.016876591935271915
aF0.017168352196437964
ag139
ag139
aF0.02185140354759483
aF0.018617794870739453
aF0.016948116768360073
aF0.017240335873750488
ag139
ag139
aF0.02175375912884983
aF0.01852012536754665
aF0.01687513647357732
aF0.017166863917928887
ag139
ag139
aF0.021802553736015428
aF0.018344690766513967
aF0.016771144048082796
aF0.017063450130401888
ag139
ag139
aF0.021802553736015428
aF0.01879243643080905
aF0.017052596878268034
aF0.017343740557819173
ag139
ag139
aF0.021803160942126754
aF0.0184953558545755
aF0.01711915396682841
aF0.017236618160269442
ag139
ag139
aF0.021787467103383275
aF0.018615426258869205
aF0.016721760159247142
aF0.01716019677964486
ag139
ag139
aF0.021709061826570217
aF0.01850594947070963
aF0.016877891742447446
aF0.017159345324082254
ag139
ag139
aF0.02190025863491583
aF0.018639247175591282
aF0.016989950326792142
aF0.01723160779371108
ag139
ag139
aF0.021768575837461605
aF0.018552745788027698
aF0.01702847729947277
aF0.017251945799111507
ag139
ag139
aF0.021538827332284294
aF0.018330492340722163
aF0.016559138984981174
aF0.016903426939682366
ag139
ag139
aF0.02189811073338001
aF0.018662988715079515
aF0.01699739807348242
aF0.017305075356580053
ag139
ag139
aF0.021697540171794556
aF0.01846104669161175
aF0.01681232528340359
aF0.017075695737884627
ag139
ag139
aF0.021617384392670243
aF0.018379189848521747
aF0.016669953666151836
aF0.01693861069178307
ag139
ag139
aF0.021988696556747997
aF0.018756651527850627
aF0.017151889799187494
aF0.017462477256450393
ag139
ag139
aF0.021852378064693014
aF0.01861615660834311
aF0.016945116174631958
aF0.017269710080535166
ag139
ag139
aF0.021744856622543864
aF0.018513984923599944
aF0.016871337127530986
aF0.01712924025890877
ag139
ag139
aF0.02181836578783698
aF0.018579889358829774
aF0.016918418147536664
aF0.017230768625607837
ag139
ag139
aF0.021782740673399806
aF0.01855398214084927
aF0.01690011552340543
aF0.01717219429080972
ag139
ag139
aF0.021536777634857594
aF0.01827012497577859
aF0.016554546700393663
aF0.016944636377241414
ag139
ag139
aF0.022078799068227174
aF0.018858598789761115
aF0.017273097108075147
aF0.017461822514243504
ag139
ag139
aF0.021801562473152514
aF0.018567468640237606
aF0.01688489046020597
aF0.017200416002819133
ag139
ag139
aF0.02180526708023158
aF0.018568928314270323
aF0.016937643804548038
aF0.017203157047464928
ag139
ag139
aF0.021769988435513084
aF0.018536016477037107
aF0.016839419629185403
aF0.01716262237035617
ag139
ag139
aF0.021839314358937375
aF0.018602630113320986
aF0.016986357979864114
aF0.017244534893473135
ag139
ag139
aF0.021912063364916554
aF0.01893914334190316
aF0.017059711354622035
aF0.017311417457510442
ag139
ag139
aF0.02195900063549898
aF0.018833469940054182
aF0.016913371340127034
aF0.01725526489158561
ag139
ag139
aF0.021964452980922054
aF0.018976173873480686
aF0.01707096317700288
aF0.017333273645150957
ag139
ag139
aF0.021901307690952332
aF0.018739051100686212
aF0.016919966050256842
aF0.017307340730588545
ag139
ag139
aF0.02190702185127257
aF0.018653310162312985
aF0.0169921049469609
aF0.017279913893406693
ag139
ag139
aF0.021904735303055936
aF0.018644278463629583
aF0.01698388272151543
aF0.017279913893406693
ag139
ag139
aF0.021892526067035328
aF0.018641381663815668
aF0.016979561568706145
aF0.017279913893406693
ag139
ag139
aF0.02192021861403384
aF0.01864891220377701
aF0.01700128784420838
aF0.017279913893406693
ag139
ag139
aF0.021904735303055936
aF0.018568928763590526
aF0.016911606894335452
aF0.017203578978404622
ag139
ag139
aF0.021909743848400175
aF0.018568928763590526
aF0.016911606894335452
aF0.017203578978404622
ag139
ag139
aF0.02197179003062649
aF0.018568928763590526
aF0.016911606894335452
aF0.017203578978404622
ag139
ag139
aF0.02200151781625139
aF0.018568928763590526
aF0.016911606894335452
aF0.017203578978404622
ag139
ag139
atp160
ba(lp161
g15
(g16
(dp162
g18
g19
(g20
(I0
tp163
g22
tp164
Rp165
(I1
(I1
tp166
g29
I00
(lp167
g43
atp168
bsg90
Nstp169
Rp170
ag15
(g16
(dp171
g18
g19
(g20
(I0
tp172
g22
tp173
Rp174
(I1
(I55
tp175
g29
I00
(lp176
g33
ag34
ag35
ag36
ag37
ag38
ag39
ag40
ag41
ag42
ag44
ag45
ag46
ag47
ag48
ag49
ag50
ag51
ag52
ag53
ag54
ag55
ag56
ag57
ag58
ag59
ag60
ag61
ag62
ag63
ag64
ag65
ag66
ag67
ag68
ag69
ag70
ag71
ag72
ag73
ag74
ag75
ag76
ag77
ag78
ag79
ag80
ag81
ag82
ag83
ag84
ag85
ag86
ag87
ag88
atp177
bsg90
Nstp178
Rp179
a(dp180
S'0.14.1'
p181
(dp182
S'axes'
p183
g14
sS'blocks'
p184
(lp185
(dp186
S'mgr_locs'
p187
c__builtin__
slice
p188
(I10
I11
I1
tp189
Rp190
sS'values'
p191
g111
sa(dp192
g187
g19
(g20
(I0
tp193
g22
tp194
Rp195
(I1
(I55
tp196
g101
I00
S'\x00\x00\x00\x00\x00\x00\x00\x00\x01\x00\x00\x00\x00\x00\x00\x00\x02\x00\x00\x00\x00\x00\x00\x00\x03\x00\x00\x00\x00\x00\x00\x00\x04\x00\x00\x00\x00\x00\x00\x00\x05\x00\x00\x00\x00\x00\x00\x00\x06\x00\x00\x00\x00\x00\x00\x00\x07\x00\x00\x00\x00\x00\x00\x00\x08\x00\x00\x00\x00\x00\x00\x00\t\x00\x00\x00\x00\x00\x00\x00\x0b\x00\x00\x00\x00\x00\x00\x00\x0c\x00\x00\x00\x00\x00\x00\x00\r\x00\x00\x00\x00\x00\x00\x00\x0e\x00\x00\x00\x00\x00\x00\x00\x0f\x00\x00\x00\x00\x00\x00\x00\x10\x00\x00\x00\x00\x00\x00\x00\x11\x00\x00\x00\x00\x00\x00\x00\x12\x00\x00\x00\x00\x00\x00\x00\x13\x00\x00\x00\x00\x00\x00\x00\x14\x00\x00\x00\x00\x00\x00\x00\x15\x00\x00\x00\x00\x00\x00\x00\x16\x00\x00\x00\x00\x00\x00\x00\x17\x00\x00\x00\x00\x00\x00\x00\x18\x00\x00\x00\x00\x00\x00\x00\x19\x00\x00\x00\x00\x00\x00\x00\x1a\x00\x00\x00\x00\x00\x00\x00\x1b\x00\x00\x00\x00\x00\x00\x00\x1c\x00\x00\x00\x00\x00\x00\x00\x1d\x00\x00\x00\x00\x00\x00\x00\x1e\x00\x00\x00\x00\x00\x00\x00\x1f\x00\x00\x00\x00\x00\x00\x00 \x00\x00\x00\x00\x00\x00\x00!\x00\x00\x00\x00\x00\x00\x00"\x00\x00\x00\x00\x00\x00\x00#\x00\x00\x00\x00\x00\x00\x00$\x00\x00\x00\x00\x00\x00\x00%\x00\x00\x00\x00\x00\x00\x00&\x00\x00\x00\x00\x00\x00\x00\'\x00\x00\x00\x00\x00\x00\x00(\x00\x00\x00\x00\x00\x00\x00)\x00\x00\x00\x00\x00\x00\x00*\x00\x00\x00\x00\x00\x00\x00+\x00\x00\x00\x00\x00\x00\x00,\x00\x00\x00\x00\x00\x00\x00-\x00\x00\x00\x00\x00\x00\x00.\x00\x00\x00\x00\x00\x00\x00/\x00\x00\x00\x00\x00\x00\x000\x00\x00\x00\x00\x00\x00\x001\x00\x00\x00\x00\x00\x00\x002\x00\x00\x00\x00\x00\x00\x003\x00\x00\x00\x00\x00\x00\x004\x00\x00\x00\x00\x00\x00\x005\x00\x00\x00\x00\x00\x00\x006\x00\x00\x00\x00\x00\x00\x007\x00\x00\x00\x00\x00\x00\x00'
p197
tp198
bsg191
g122
sasstp199
bsb.