ccopy_reg
_reconstructor
p0
(cpandas.core.frame
DataFrame
p1
c__builtin__
object
p2
Ntp3
Rp4
(dp5
S'_metadata'
p6
(lp7
sS'_typ'
p8
S'dataframe'
p9
sS'_data'
p10
g0
(cpandas.core.internals
BlockManager
p11
g2
Ntp12
Rp13
((lp14
cpandas.core.indexes.base
_new_Index
p15
(cpandas.core.indexes.base
Index
p16
(dp17
S'data'
p18
cnumpy.core.multiarray
_reconstruct
p19
(cnumpy
ndarray
p20
(I0
tp21
S'b'
p22
tp23
Rp24
(I1
(I56
tp25
cnumpy
dtype
p26
(S'O8'
p27
I0
I1
tp28
Rp29
(I3
S'|'
p30
NNNI-1
I-1
I63
tp31
bI00
(lp32
S'year'
p33
aS'type'
p34
aS'procOriginal'
p35
aS'proc'
p36
aS'proc_s0'
p37
aS'cat'
p38
aS'inputWSFile'
p39
aS'nominalDataName'
p40
aS'modelWSFile'
p41
aS'model'
p42
aS'rate'
p43
aS'nominal_yield'
p44
aS'sumw2'
p45
aS'nominal_yield_COWCorr'
p46
aS'photon_id_sf_Diphoton_Photon__up_yield'
p47
aS'photon_id_sf_Diphoton_Photon__down_yield'
p48
aS'photon_presel_sf_Diphoton_Photon__up_yield'
p49
aS'photon_presel_sf_Diphoton_Photon__down_yield'
p50
aS'electron_veto_sf_Diphoton_Photon__up_yield'
p51
aS'electron_veto_sf_Diphoton_Photon__down_yield'
p52
aS'trigger_sf__up_yield'
p53
aS'trigger_sf__down_yield'
p54
aS'L1_prefiring_sf__up_yield'
p55
aS'L1_prefiring_sf__down_yield'
p56
aS'puWeight__up_yield'
p57
aS'puWeight__down_yield'
p58
aS'btag_deepjet_sf_SelectedbJet_jes__up_yield'
p59
aS'btag_deepjet_sf_SelectedbJet_jes__down_yield'
p60
aS'btag_deepjet_sf_SelectedbJet_lf__up_yield'
p61
aS'btag_deepjet_sf_SelectedbJet_lf__down_yield'
p62
aS'btag_deepjet_sf_SelectedbJet_hfstats1__up_yield'
p63
aS'btag_deepjet_sf_SelectedbJet_hfstats1__down_yield'
p64
aS'btag_deepjet_sf_SelectedbJet_hfstats2__up_yield'
p65
aS'btag_deepjet_sf_SelectedbJet_hfstats2__down_yield'
p66
aS'btag_deepjet_sf_SelectedbJet_cferr1__up_yield'
p67
aS'btag_deepjet_sf_SelectedbJet_cferr1__down_yield'
p68
aS'btag_deepjet_sf_SelectedbJet_cferr2__up_yield'
p69
aS'btag_deepjet_sf_SelectedbJet_cferr2__down_yield'
p70
aS'btag_deepjet_sf_SelectedbJet_hf__up_yield'
p71
aS'btag_deepjet_sf_SelectedbJet_hf__down_yield'
p72
aS'btag_deepjet_sf_SelectedbJet_lfstats1__up_yield'
p73
aS'btag_deepjet_sf_SelectedbJet_lfstats1__down_yield'
p74
aS'btag_deepjet_sf_SelectedbJet_lfstats2__up_yield'
p75
aS'btag_deepjet_sf_SelectedbJet_lfstats2__down_yield'
p76
aS'JES_up_yield'
p77
aS'JES_down_yield'
p78
aS'JER_up_yield'
p79
aS'JER_down_yield'
p80
aS'FJER_up_yield'
p81
aS'FJER_down_yield'
p82
aS'FJES_up_yield'
p83
aS'FJES_down_yield'
p84
aS'FJHEM_up_yield'
p85
aS'FJHEM_down_yield'
p86
aS'JetHEM_up_yield'
p87
aS'JetHEM_down_yield'
p88
atp89
bsS'name'
p90
Nstp91
Rp92
ag15
(cpandas.core.indexes.numeric
Int64Index
p93
(dp94
g18
g19
(g20
(I0
tp95
g22
tp96
Rp97
(I1
(I6
tp98
g26
(S'i8'
p99
I0
I1
tp100
Rp101
(I3
S'<'
p102
NNNI-1
I-1
I0
tp103
bI00
S'\x00\x00\x00\x00\x00\x00\x00\x00\x01\x00\x00\x00\x00\x00\x00\x00\x02\x00\x00\x00\x00\x00\x00\x00\x03\x00\x00\x00\x00\x00\x00\x00\x04\x00\x00\x00\x00\x00\x00\x00\x05\x00\x00\x00\x00\x00\x00\x00'
p104
tp105
bsg90
Nstp106
Rp107
a(lp108
g19
(g20
(I0
tp109
g22
tp110
Rp111
(I1
(I1
I6
tp112
g26
(S'f8'
p113
I0
I1
tp114
Rp115
(I3
S'<'
p116
NNNI-1
I-1
I0
tp117
bI00
S'\x00\x00\x00\x00\xc06\xed@\x00\x00\x00\x00\x00A\xe4@\x00\x00\x00\x00\x00\x06\xd3@\x00\x00\x00\x00\x00^\xd0@\x00\x00\x00\x00\x00\x00\xf0?\x00\x00\x00\x00\x00\x00\xf0\xbf'
p118
tp119
bag19
(g20
(I0
tp120
g22
tp121
Rp122
(I1
(I55
I6
tp123
g29
I00
(lp124
S'2018'
p125
aS'2017'
p126
aS'2016pre'
p127
aS'2016post'
p128
aS'merged'
p129
ag129
aS'sig'
p130
ag130
ag130
ag130
aS'bkg'
p131
ag18
aS'gghh'
p132
ag132
ag132
ag132
aS'bkg_mass'
p133
aS'data_obs'
p134
aS'gghh_2018_hgg'
p135
aS'gghh_2017_hgg'
p136
aS'gghh_2016pre_hgg'
p137
aS'gghh_2016post_hgg'
p138
ag133
ag134
ag132
ag132
ag132
ag132
aS'-'
p139
ag139
aS'boosted_cat1'
p140
ag140
ag140
ag140
ag140
ag140
aS'/eos/cms/store/group/phys_higgs/cmshgg/zhjie/output/output_3000_boost/opt/2018/root/addsys/ws_gghh_cat1_650/output_NMSSM_XToYHTo2B2G_MX-3000_MY-650_cat1_2018_M125_pythia8_gghh.root'
p141
aS'/eos/cms/store/group/phys_higgs/cmshgg/zhjie/output/output_3000_boost/opt/2017/root/addsys/ws_gghh_cat1_650/output_NMSSM_XToYHTo2B2G_MX-3000_MY-650_cat1_2017_M125_pythia8_gghh.root'
p142
aS'/eos/cms/store/group/phys_higgs/cmshgg/zhjie/output/output_3000_boost/opt/2016pre/root/addsys/ws_gghh_cat1_650/output_NMSSM_XToYHTo2B2G_MX-3000_MY-650_cat1_2016pre_M125_pythia8_gghh.root'
p143
aS'/eos/cms/store/group/phys_higgs/cmshgg/zhjie/output/output_3000_boost/opt/2016post/root/addsys/ws_gghh_cat1_650/output_NMSSM_XToYHTo2B2G_MX-3000_MY-650_cat1_2016post_M125_pythia8_gghh.root'
p144
ag139
ag139
aS'gghh_125_13TeV_boosted_cat1'
p145
aS'gghh_125_13TeV_boosted_cat1'
p146
aS'gghh_125_13TeV_boosted_cat1'
p147
aS'gghh_125_13TeV_boosted_cat1'
p148
ag139
ag139
aS'/eos/user/z/zhjie/CMSSW_10_2_13/src/flashggFinalFit/Signal/outdir_packaged_mergeyears_boost_masscut_3000_M650_cat1/CMS-HGG_sigfit_packaged_boosted_cat1.root'
p149
aS'/eos/user/z/zhjie/CMSSW_10_2_13/src/flashggFinalFit/Signal/outdir_packaged_mergeyears_boost_masscut_3000_M650_cat1/CMS-HGG_sigfit_packaged_boosted_cat1.root'
p150
aS'/eos/user/z/zhjie/CMSSW_10_2_13/src/flashggFinalFit/Signal/outdir_packaged_mergeyears_boost_masscut_3000_M650_cat1/CMS-HGG_sigfit_packaged_boosted_cat1.root'
p151
aS'/eos/user/z/zhjie/CMSSW_10_2_13/src/flashggFinalFit/Signal/outdir_packaged_mergeyears_boost_masscut_3000_M650_cat1/CMS-HGG_sigfit_packaged_boosted_cat1.root'
p152
aS'/eos/cms/store/group/phys_higgs/cmshgg/zhjie/output/output_1000_boost/opt/data/root/ws_cat1/CMS-HGG_multipdf_boosted_cat1.root'
p153
ag153
aS'wsig_13TeV:hggpdfsmrel_gghh_2018_boosted_cat1_13TeV'
p154
aS'wsig_13TeV:hggpdfsmrel_gghh_2017_boosted_cat1_13TeV'
p155
aS'wsig_13TeV:hggpdfsmrel_gghh_2016pre_boosted_cat1_13TeV'
p156
aS'wsig_13TeV:hggpdfsmrel_gghh_2016post_boosted_cat1_13TeV'
p157
aS'multipdf:CMS_hgg_boosted_cat1_13TeV_bkgshape'
p158
aS'multipdf:roohist_data_mass_boosted_cat1'
p159
aF0.001207787357939521
aF0.0010356382117034304
aF0.0011132793377920554
aF0.0013768386554754066
ag139
ag139
aF3.2522876526453094e-09
aF2.5482130001201583e-09
aF5.958074447208368e-09
aF7.583840945339932e-09
ag139
ag139
aF0.001207787357939521
aF0.0010356382117034304
aF0.0011132793377920554
aF0.0013768386554754066
ag139
ag139
aF0.001238421129703877
aF0.0010805451248515573
aF0.0011437987270857194
aF0.001410535110336638
ag139
ag139
aF0.0011775606934441671
aF0.0009918416576201172
aF0.0010832416941179124
aF0.0013435966882580305
ag139
ag139
aF0.001264000332878934
aF0.001078292146639177
aF0.0011601266129117303
aF0.0014348468652014125
ag139
ag139
aF0.0011528537328036603
aF0.0009938492385678282
aF0.0010673984580140093
aF0.001320027868232338
ag139
ag139
aF0.0012093055994074186
aF0.001038013468900619
aF0.0011148982011000444
aF0.0013788009348458434
ag139
ag139
aF0.0012062703428335915
aF0.0010332663304439553
aF0.0011116618325217203
aF0.0013748780622136938
ag139
ag139
aF0.0012102999425430245
aF0.0010380634165975215
aF0.001115596881610566
aF0.0013796113082679992
ag139
ag139
aF0.0012052774291208507
aF0.001033215664096719
aF0.0011109642166874122
aF0.0013740688090001791
ag139
ag139
aF0.001207787357939521
aF0.0010243856273369318
aF0.0011056991044137456
aF0.0013682362440277493
ag139
ag139
aF0.001207787357939521
aF0.001046895911764447
aF0.0011209211497604497
aF0.001385434363483035
ag139
ag139
aF0.0012049385679816043
aF0.0010475170259298325
aF0.0011483175540623633
aF0.0014092408247682302
ag139
ag139
aF0.001214023588106539
aF0.0010228297649143665
aF0.0010905829455221756
aF0.001349369438783867
ag139
ag139
aF0.0012019748011795454
aF0.001031024188472065
aF0.0011083527552943192
aF0.0013688530101602133
ag139
ag139
aF0.0012125971767412774
aF0.0010411930323352538
aF0.0011267502681709006
aF0.0013878136605138612
ag139
ag139
aF0.0012312567764186466
aF0.0010589675301342655
aF0.0011528585227448245
aF0.0014190390823417408
ag139
ag139
aF0.0011697635767198775
aF0.0009990604583281924
aF0.001059446326572733
aF0.0013142971420064215
ag139
ag139
aF0.0012021277987091827
aF0.0010289837900838087
aF0.001095967418568084
aF0.0013562437049985205
ag139
ag139
aF0.0012127747040464433
aF0.0010415309642666638
aF0.0011284540443888922
aF0.0013945414076809454
ag139
ag139
aF0.0012018753913606822
aF0.0010311023722077
aF0.001102391835498224
aF0.0013633731260751722
ag139
ag139
aF0.001213582563106843
aF0.001040043353446597
aF0.0011234747746950919
aF0.0013894634855916342
ag139
ag139
aF0.001211265495909835
aF0.0010362876920634284
aF0.001115674545389583
aF0.0013825299349948794
ag139
ag139
aF0.0012030845045329559
aF0.0010342415528355753
aF0.0011100260763964723
aF0.00136969653076313
ag139
ag139
aF0.0012076920927662008
aF0.001035108838184235
aF0.0011120834531199437
aF0.0013729715761280476
ag139
ag139
aF0.0012073496137670779
aF0.0010359265926166165
aF0.0011139742667820643
aF0.0013799272205674042
ag139
ag139
aF0.0011550311892853079
aF0.001008349417457253
aF0.0010708881850770612
aF0.0013278808739468988
ag139
ag139
aF0.0012632407977954537
aF0.0010621264283898024
aF0.0011568760435590214
aF0.0014273340891825378
ag139
ag139
aF0.0012050298392477046
aF0.0010353265919525168
aF0.0011084486283892327
aF0.001372892876747886
ag139
ag139
aF0.0012112546804633436
aF0.0010357989103973993
aF0.0011179489862249955
aF0.0013807348772806034
ag139
ag139
aF0.0012001029100162641
aF0.0010322947078743579
aF0.0011046548275498362
aF0.0013683155578382302
ag139
ag139
aF0.0012165280805942762
aF0.0010390616387724344
aF0.0011220254948775456
aF0.0013857174296344219
ag139
ag139
aF0.01959942445119316
aF0.017344321535238894
aF0.021367327704280455
aF0.02000596866813125
ag139
ag139
aF0.019622735007708624
aF0.017354810865244683
aF0.021364264983313817
aF0.020013559302348598
ag139
ag139
aF0.019608317883594215
aF0.017347642898606404
aF0.02136640999445337
aF0.02001054776071469
ag139
ag139
aF0.01961278559086978
aF0.01735246779415121
aF0.02136776069742794
aF0.020005885152789775
ag139
ag139
aF0.019327978951813745
aF0.0170795055659241
aF0.02103160432283717
aF0.01969617198104715
ag139
ag139
aF0.01935283899516715
aF0.01708954365763336
aF0.021071860892753917
aF0.019727185094845476
ag139
ag139
aF0.01937596432554897
aF0.017100144478904265
aF0.021094472334316
aF0.01974643761568416
ag139
ag139
aF0.01931398010794489
aF0.017055489927292763
aF0.021026876413404984
aF0.019676908976688178
ag139
ag139
aF0.019339609072374232
aF0.0010356382117034304
aF0.001113279337792056
aF0.0013768386554754062
ag139
ag139
aF0.019331062599776322
aF0.0010356382117034304
aF0.001113279337792056
aF0.0013768386554754062
ag139
ag139
aF0.0196108265490035
aF0.0010356382117034304
aF0.001113279337792056
aF0.0013768386554754062
ag139
ag139
aF0.01961185191588852
aF0.0010356382117034304
aF0.001113279337792056
aF0.0013768386554754062
ag139
ag139
atp160
ba(lp161
g15
(g16
(dp162
g18
g19
(g20
(I0
tp163
g22
tp164
Rp165
(I1
(I1
tp166
g29
I00
(lp167
g43
atp168
bsg90
Nstp169
Rp170
ag15
(g16
(dp171
g18
g19
(g20
(I0
tp172
g22
tp173
Rp174
(I1
(I55
tp175
g29
I00
(lp176
g33
ag34
ag35
ag36
ag37
ag38
ag39
ag40
ag41
ag42
ag44
ag45
ag46
ag47
ag48
ag49
ag50
ag51
ag52
ag53
ag54
ag55
ag56
ag57
ag58
ag59
ag60
ag61
ag62
ag63
ag64
ag65
ag66
ag67
ag68
ag69
ag70
ag71
ag72
ag73
ag74
ag75
ag76
ag77
ag78
ag79
ag80
ag81
ag82
ag83
ag84
ag85
ag86
ag87
ag88
atp177
bsg90
Nstp178
Rp179
a(dp180
S'0.14.1'
p181
(dp182
S'axes'
p183
g14
sS'blocks'
p184
(lp185
(dp186
S'mgr_locs'
p187
c__builtin__
slice
p188
(I10
I11
I1
tp189
Rp190
sS'values'
p191
g111
sa(dp192
g187
g19
(g20
(I0
tp193
g22
tp194
Rp195
(I1
(I55
tp196
g101
I00
S'\x00\x00\x00\x00\x00\x00\x00\x00\x01\x00\x00\x00\x00\x00\x00\x00\x02\x00\x00\x00\x00\x00\x00\x00\x03\x00\x00\x00\x00\x00\x00\x00\x04\x00\x00\x00\x00\x00\x00\x00\x05\x00\x00\x00\x00\x00\x00\x00\x06\x00\x00\x00\x00\x00\x00\x00\x07\x00\x00\x00\x00\x00\x00\x00\x08\x00\x00\x00\x00\x00\x00\x00\t\x00\x00\x00\x00\x00\x00\x00\x0b\x00\x00\x00\x00\x00\x00\x00\x0c\x00\x00\x00\x00\x00\x00\x00\r\x00\x00\x00\x00\x00\x00\x00\x0e\x00\x00\x00\x00\x00\x00\x00\x0f\x00\x00\x00\x00\x00\x00\x00\x10\x00\x00\x00\x00\x00\x00\x00\x11\x00\x00\x00\x00\x00\x00\x00\x12\x00\x00\x00\x00\x00\x00\x00\x13\x00\x00\x00\x00\x00\x00\x00\x14\x00\x00\x00\x00\x00\x00\x00\x15\x00\x00\x00\x00\x00\x00\x00\x16\x00\x00\x00\x00\x00\x00\x00\x17\x00\x00\x00\x00\x00\x00\x00\x18\x00\x00\x00\x00\x00\x00\x00\x19\x00\x00\x00\x00\x00\x00\x00\x1a\x00\x00\x00\x00\x00\x00\x00\x1b\x00\x00\x00\x00\x00\x00\x00\x1c\x00\x00\x00\x00\x00\x00\x00\x1d\x00\x00\x00\x00\x00\x00\x00\x1e\x00\x00\x00\x00\x00\x00\x00\x1f\x00\x00\x00\x00\x00\x00\x00 \x00\x00\x00\x00\x00\x00\x00!\x00\x00\x00\x00\x00\x00\x00"\x00\x00\x00\x00\x00\x00\x00#\x00\x00\x00\x00\x00\x00\x00$\x00\x00\x00\x00\x00\x00\x00%\x00\x00\x00\x00\x00\x00\x00&\x00\x00\x00\x00\x00\x00\x00\'\x00\x00\x00\x00\x00\x00\x00(\x00\x00\x00\x00\x00\x00\x00)\x00\x00\x00\x00\x00\x00\x00*\x00\x00\x00\x00\x00\x00\x00+\x00\x00\x00\x00\x00\x00\x00,\x00\x00\x00\x00\x00\x00\x00-\x00\x00\x00\x00\x00\x00\x00.\x00\x00\x00\x00\x00\x00\x00/\x00\x00\x00\x00\x00\x00\x000\x00\x00\x00\x00\x00\x00\x001\x00\x00\x00\x00\x00\x00\x002\x00\x00\x00\x00\x00\x00\x003\x00\x00\x00\x00\x00\x00\x004\x00\x00\x00\x00\x00\x00\x005\x00\x00\x00\x00\x00\x00\x006\x00\x00\x00\x00\x00\x00\x007\x00\x00\x00\x00\x00\x00\x00'
p197
tp198
bsg191
g122
sasstp199
bsb.