ccopy_reg
_reconstructor
p0
(cpandas.core.frame
DataFrame
p1
c__builtin__
object
p2
Ntp3
Rp4
(dp5
S'_metadata'
p6
(lp7
sS'_typ'
p8
S'dataframe'
p9
sS'_data'
p10
g0
(cpandas.core.internals
BlockManager
p11
g2
Ntp12
Rp13
((lp14
cpandas.core.indexes.base
_new_Index
p15
(cpandas.core.indexes.base
Index
p16
(dp17
S'data'
p18
cnumpy.core.multiarray
_reconstruct
p19
(cnumpy
ndarray
p20
(I0
tp21
S'b'
p22
tp23
Rp24
(I1
(I56
tp25
cnumpy
dtype
p26
(S'O8'
p27
I0
I1
tp28
Rp29
(I3
S'|'
p30
NNNI-1
I-1
I63
tp31
bI00
(lp32
S'year'
p33
aS'type'
p34
aS'procOriginal'
p35
aS'proc'
p36
aS'proc_s0'
p37
aS'cat'
p38
aS'inputWSFile'
p39
aS'nominalDataName'
p40
aS'modelWSFile'
p41
aS'model'
p42
aS'rate'
p43
aS'nominal_yield'
p44
aS'sumw2'
p45
aS'nominal_yield_COWCorr'
p46
aS'photon_id_sf_Diphoton_Photon__up_yield'
p47
aS'photon_id_sf_Diphoton_Photon__down_yield'
p48
aS'photon_presel_sf_Diphoton_Photon__up_yield'
p49
aS'photon_presel_sf_Diphoton_Photon__down_yield'
p50
aS'electron_veto_sf_Diphoton_Photon__up_yield'
p51
aS'electron_veto_sf_Diphoton_Photon__down_yield'
p52
aS'trigger_sf__up_yield'
p53
aS'trigger_sf__down_yield'
p54
aS'L1_prefiring_sf__up_yield'
p55
aS'L1_prefiring_sf__down_yield'
p56
aS'puWeight__up_yield'
p57
aS'puWeight__down_yield'
p58
aS'btag_deepjet_sf_SelectedbJet_jes__up_yield'
p59
aS'btag_deepjet_sf_SelectedbJet_jes__down_yield'
p60
aS'btag_deepjet_sf_SelectedbJet_lf__up_yield'
p61
aS'btag_deepjet_sf_SelectedbJet_lf__down_yield'
p62
aS'btag_deepjet_sf_SelectedbJet_hfstats1__up_yield'
p63
aS'btag_deepjet_sf_SelectedbJet_hfstats1__down_yield'
p64
aS'btag_deepjet_sf_SelectedbJet_hfstats2__up_yield'
p65
aS'btag_deepjet_sf_SelectedbJet_hfstats2__down_yield'
p66
aS'btag_deepjet_sf_SelectedbJet_cferr1__up_yield'
p67
aS'btag_deepjet_sf_SelectedbJet_cferr1__down_yield'
p68
aS'btag_deepjet_sf_SelectedbJet_cferr2__up_yield'
p69
aS'btag_deepjet_sf_SelectedbJet_cferr2__down_yield'
p70
aS'btag_deepjet_sf_SelectedbJet_hf__up_yield'
p71
aS'btag_deepjet_sf_SelectedbJet_hf__down_yield'
p72
aS'btag_deepjet_sf_SelectedbJet_lfstats1__up_yield'
p73
aS'btag_deepjet_sf_SelectedbJet_lfstats1__down_yield'
p74
aS'btag_deepjet_sf_SelectedbJet_lfstats2__up_yield'
p75
aS'btag_deepjet_sf_SelectedbJet_lfstats2__down_yield'
p76
aS'JES_up_yield'
p77
aS'JES_down_yield'
p78
aS'JER_up_yield'
p79
aS'JER_down_yield'
p80
aS'FJER_up_yield'
p81
aS'FJER_down_yield'
p82
aS'FJES_up_yield'
p83
aS'FJES_down_yield'
p84
aS'FJHEM_up_yield'
p85
aS'FJHEM_down_yield'
p86
aS'JetHEM_up_yield'
p87
aS'JetHEM_down_yield'
p88
atp89
bsS'name'
p90
Nstp91
Rp92
ag15
(cpandas.core.indexes.numeric
Int64Index
p93
(dp94
g18
g19
(g20
(I0
tp95
g22
tp96
Rp97
(I1
(I6
tp98
g26
(S'i8'
p99
I0
I1
tp100
Rp101
(I3
S'<'
p102
NNNI-1
I-1
I0
tp103
bI00
S'\x00\x00\x00\x00\x00\x00\x00\x00\x01\x00\x00\x00\x00\x00\x00\x00\x02\x00\x00\x00\x00\x00\x00\x00\x03\x00\x00\x00\x00\x00\x00\x00\x04\x00\x00\x00\x00\x00\x00\x00\x05\x00\x00\x00\x00\x00\x00\x00'
p104
tp105
bsg90
Nstp106
Rp107
a(lp108
g19
(g20
(I0
tp109
g22
tp110
Rp111
(I1
(I1
I6
tp112
g26
(S'f8'
p113
I0
I1
tp114
Rp115
(I3
S'<'
p116
NNNI-1
I-1
I0
tp117
bI00
S'\x00\x00\x00\x00\xc06\xed@\x00\x00\x00\x00\x00A\xe4@\x00\x00\x00\x00\x00\x06\xd3@\x00\x00\x00\x00\x00^\xd0@\x00\x00\x00\x00\x00\x00\xf0?\x00\x00\x00\x00\x00\x00\xf0\xbf'
p118
tp119
bag19
(g20
(I0
tp120
g22
tp121
Rp122
(I1
(I55
I6
tp123
g29
I00
(lp124
S'2018'
p125
aS'2017'
p126
aS'2016pre'
p127
aS'2016post'
p128
aS'merged'
p129
ag129
aS'sig'
p130
ag130
ag130
ag130
aS'bkg'
p131
ag18
aS'gghh'
p132
ag132
ag132
ag132
aS'bkg_mass'
p133
aS'data_obs'
p134
aS'gghh_2018_hgg'
p135
aS'gghh_2017_hgg'
p136
aS'gghh_2016pre_hgg'
p137
aS'gghh_2016post_hgg'
p138
ag133
ag134
ag132
ag132
ag132
ag132
aS'-'
p139
ag139
aS'resolved_cat0'
p140
ag140
ag140
ag140
ag140
ag140
aS'/eos/cms/store/group/phys_higgs/cmshgg/zhjie/output/output_1000/opt/2018/root/addsys/ws_gghh_cat0_190/output_NMSSM_XToYHTo2B2G_MX-1000_MY-190_cat0_2018_M125_pythia8_gghh.root'
p141
aS'/eos/cms/store/group/phys_higgs/cmshgg/zhjie/output/output_1000/opt/2017/root/addsys/ws_gghh_cat0_190/output_NMSSM_XToYHTo2B2G_MX-1000_MY-190_cat0_2017_M125_pythia8_gghh.root'
p142
aS'/eos/cms/store/group/phys_higgs/cmshgg/zhjie/output/output_1000/opt/2016pre/root/addsys/ws_gghh_cat0_190/output_NMSSM_XToYHTo2B2G_MX-1000_MY-190_cat0_2016pre_M125_pythia8_gghh.root'
p143
aS'/eos/cms/store/group/phys_higgs/cmshgg/zhjie/output/output_1000/opt/2016post/root/addsys/ws_gghh_cat0_190/output_NMSSM_XToYHTo2B2G_MX-1000_MY-190_cat0_2016post_M125_pythia8_gghh.root'
p144
ag139
ag139
aS'gghh_125_13TeV_resolved_cat0'
p145
aS'gghh_125_13TeV_resolved_cat0'
p146
aS'gghh_125_13TeV_resolved_cat0'
p147
aS'gghh_125_13TeV_resolved_cat0'
p148
ag139
ag139
aS'/eos/user/z/zhjie/CMSSW_10_2_13/src/flashggFinalFit/Signal/outdir_packaged_mergeyears_1000_M190_cat0/CMS-HGG_sigfit_packaged_resolved_cat0.root'
p149
aS'/eos/user/z/zhjie/CMSSW_10_2_13/src/flashggFinalFit/Signal/outdir_packaged_mergeyears_1000_M190_cat0/CMS-HGG_sigfit_packaged_resolved_cat0.root'
p150
aS'/eos/user/z/zhjie/CMSSW_10_2_13/src/flashggFinalFit/Signal/outdir_packaged_mergeyears_1000_M190_cat0/CMS-HGG_sigfit_packaged_resolved_cat0.root'
p151
aS'/eos/user/z/zhjie/CMSSW_10_2_13/src/flashggFinalFit/Signal/outdir_packaged_mergeyears_1000_M190_cat0/CMS-HGG_sigfit_packaged_resolved_cat0.root'
p152
aS'/eos/cms/store/group/phys_higgs/cmshgg/zhjie/output/output_1000/opt/data/root/ws_cat0_190/CMS-HGG_multipdf_resolved_cat0.root'
p153
ag153
aS'wsig_13TeV:hggpdfsmrel_gghh_2018_resolved_cat0_13TeV'
p154
aS'wsig_13TeV:hggpdfsmrel_gghh_2017_resolved_cat0_13TeV'
p155
aS'wsig_13TeV:hggpdfsmrel_gghh_2016pre_resolved_cat0_13TeV'
p156
aS'wsig_13TeV:hggpdfsmrel_gghh_2016post_resolved_cat0_13TeV'
p157
aS'multipdf:CMS_hgg_resolved_cat0_13TeV_bkgshape'
p158
aS'multipdf:roohist_data_mass_resolved_cat0'
p159
aF0.2413763822673757
aF0.23613928955817023
aF0.24531100187561852
aF0.24355589782853027
ag139
ag139
aF5.689102719150807e-07
aF5.436726883107751e-07
aF1.1123034693871158e-06
aF1.284093320755967e-06
ag139
ag139
aF0.2413763822673757
aF0.23613928955817023
aF0.24531100187561852
aF0.24355589782853027
ag139
ag139
aF0.2466631058033629
aF0.24756076766136223
aF0.25183835711335967
aF0.2485013033219856
ag139
ag139
aF0.2361467746137443
aF0.22495362861350235
aF0.23887001418999101
aF0.2386600644592159
ag139
ag139
aF0.2526130854443193
aF0.24587134819953418
aF0.2556137487531234
aF0.2538082195461011
ag139
ag139
aF0.2303954997052652
aF0.22660421377675416
aF0.23522030527837545
aF0.23351499724078623
ag139
ag139
aF0.24170830665167334
aF0.23668894800435675
aF0.2457103060503185
aF0.2439488853355978
ag139
ag139
aF0.2410447376212844
aF0.2355903599157049
aF0.24491206514140226
aF0.24316327045271408
ag139
ag139
aF0.24189052399785763
aF0.23670755188106915
aF0.2458217036620049
aF0.24405885320700818
ag139
ag139
aF0.24086279563197072
aF0.2355716894935808
aF0.24480083387426235
aF0.24305346394263588
ag139
ag139
aF0.2413763822673757
aF0.23419738326081632
aF0.2439894533374422
aF0.24225993115156286
ag139
ag139
aF0.2413763822673757
aF0.23806241471906467
aF0.24663529199676443
aF0.2448553182211446
ag139
ag139
aF0.24099130760004256
aF0.23596504135147603
aF0.24559652047148742
aF0.24374386124880135
ag139
ag139
aF0.24176950854959342
aF0.2364295510261764
aF0.24500702974896832
aF0.24342460138742616
ag139
ag139
aF0.24108310747704909
aF0.2354731664069595
aF0.24537130648793887
aF0.2435496563122455
ag139
ag139
aF0.24177674465470705
aF0.23708156077591452
aF0.2464011194160714
aF0.244585394687142
ag139
ag139
aF0.24559684839890092
aF0.24035235672211513
aF0.25115202720515384
aF0.24950735137297206
ag139
ag139
aF0.23349370900913125
aF0.22843177876544196
aF0.23559286003066987
aF0.23332900688958427
ag139
ag139
aF0.2408934878324423
aF0.23572380029796616
aF0.24411868880549425
aF0.24183831653914922
ag139
ag139
aF0.24172126739645952
aF0.23635320418242267
aF0.24615199547118602
aF0.2447641209372053
ag139
ag139
aF0.23974032337092227
aF0.2341945524313603
aF0.24215898649548961
aF0.24010706554606567
ag139
ag139
aF0.24300344515361602
aF0.23805547579340586
aF0.24836323620616
aF0.24687232643077406
ag139
ag139
aF0.2416290172408947
aF0.2364567654363023
aF0.24558972322920805
aF0.2439110766121037
ag139
ag139
aF0.24109015583916618
aF0.23578045783306015
aF0.24498571565287838
aF0.2431499837973703
ag139
ag139
aF0.2414723754905757
aF0.2362365352497873
aF0.24541473079564932
aF0.24369195802091748
ag139
ag139
aF0.2412635813939372
aF0.23602223853739998
aF0.24517592578974887
aF0.24339213449506772
ag139
ag139
aF0.2400855415288945
aF0.23459800689502516
aF0.2433379004607242
aF0.24175267163313122
ag139
ag139
aF0.24270634009187794
aF0.2376256805877226
aF0.2473006399725405
aF0.24537158166770642
ag139
ag139
aF0.24138630663696117
aF0.23613951029140728
aF0.24523358169319295
aF0.2435023516848745
ag139
ag139
aF0.24137072125349981
aF0.23612991053903917
aF0.24537140661901344
aF0.2435949759639048
ag139
ag139
aF0.2412332091960211
aF0.2359677258060095
aF0.244951463558787
aF0.24325692674593416
ag139
ag139
aF0.2415353680595346
aF0.23631326058658284
aF0.24567591739021857
aF0.2438607868769439
ag139
ag139
aF0.24290910462415188
aF0.2378189686570596
aF0.24666972746267699
aF0.24486863896773084
ag139
ag139
aF0.23939341584917323
aF0.23484989556237204
aF0.2438694474270891
aF0.24227225655590104
ag139
ag139
aF0.24115771046183154
aF0.23634627805354563
aF0.2454411099884739
aF0.24348563138262722
ag139
ag139
aF0.2412089606018358
aF0.2362352019843723
aF0.24538743973055618
aF0.24346503133660224
ag139
ag139
aF0.2424551367174811
aF0.23735303597060023
aF0.2464259473174351
aF0.24463728585823794
ag139
ag139
aF0.24237058541369727
aF0.23714112350893618
aF0.24636346835087986
aF0.24455408056647068
ag139
ag139
aF0.24233397908755192
aF0.23718139287911155
aF0.2462933075674904
aF0.24446977781804205
ag139
ag139
aF0.24252382742568265
aF0.23731207463037327
aF0.2465176623679745
aF0.24473518598378385
ag139
ag139
aF0.242417081567557
aF0.23613928955817176
aF0.24531100187561974
aF0.2435558978285302
ag139
ag139
aF0.2424580180376437
aF0.23613928955817176
aF0.24531100187561974
aF0.2435558978285302
ag139
ag139
aF0.24115558626755945
aF0.23613928955817176
aF0.24531100187561974
aF0.2435558978285302
ag139
ag139
aF0.24078209682124221
aF0.23613928955817176
aF0.24531100187561974
aF0.2435558978285302
ag139
ag139
atp160
ba(lp161
g15
(g16
(dp162
g18
g19
(g20
(I0
tp163
g22
tp164
Rp165
(I1
(I1
tp166
g29
I00
(lp167
g43
atp168
bsg90
Nstp169
Rp170
ag15
(g16
(dp171
g18
g19
(g20
(I0
tp172
g22
tp173
Rp174
(I1
(I55
tp175
g29
I00
(lp176
g33
ag34
ag35
ag36
ag37
ag38
ag39
ag40
ag41
ag42
ag44
ag45
ag46
ag47
ag48
ag49
ag50
ag51
ag52
ag53
ag54
ag55
ag56
ag57
ag58
ag59
ag60
ag61
ag62
ag63
ag64
ag65
ag66
ag67
ag68
ag69
ag70
ag71
ag72
ag73
ag74
ag75
ag76
ag77
ag78
ag79
ag80
ag81
ag82
ag83
ag84
ag85
ag86
ag87
ag88
atp177
bsg90
Nstp178
Rp179
a(dp180
S'0.14.1'
p181
(dp182
S'axes'
p183
g14
sS'blocks'
p184
(lp185
(dp186
S'mgr_locs'
p187
c__builtin__
slice
p188
(I10
I11
I1
tp189
Rp190
sS'values'
p191
g111
sa(dp192
g187
g19
(g20
(I0
tp193
g22
tp194
Rp195
(I1
(I55
tp196
g101
I00
S'\x00\x00\x00\x00\x00\x00\x00\x00\x01\x00\x00\x00\x00\x00\x00\x00\x02\x00\x00\x00\x00\x00\x00\x00\x03\x00\x00\x00\x00\x00\x00\x00\x04\x00\x00\x00\x00\x00\x00\x00\x05\x00\x00\x00\x00\x00\x00\x00\x06\x00\x00\x00\x00\x00\x00\x00\x07\x00\x00\x00\x00\x00\x00\x00\x08\x00\x00\x00\x00\x00\x00\x00\t\x00\x00\x00\x00\x00\x00\x00\x0b\x00\x00\x00\x00\x00\x00\x00\x0c\x00\x00\x00\x00\x00\x00\x00\r\x00\x00\x00\x00\x00\x00\x00\x0e\x00\x00\x00\x00\x00\x00\x00\x0f\x00\x00\x00\x00\x00\x00\x00\x10\x00\x00\x00\x00\x00\x00\x00\x11\x00\x00\x00\x00\x00\x00\x00\x12\x00\x00\x00\x00\x00\x00\x00\x13\x00\x00\x00\x00\x00\x00\x00\x14\x00\x00\x00\x00\x00\x00\x00\x15\x00\x00\x00\x00\x00\x00\x00\x16\x00\x00\x00\x00\x00\x00\x00\x17\x00\x00\x00\x00\x00\x00\x00\x18\x00\x00\x00\x00\x00\x00\x00\x19\x00\x00\x00\x00\x00\x00\x00\x1a\x00\x00\x00\x00\x00\x00\x00\x1b\x00\x00\x00\x00\x00\x00\x00\x1c\x00\x00\x00\x00\x00\x00\x00\x1d\x00\x00\x00\x00\x00\x00\x00\x1e\x00\x00\x00\x00\x00\x00\x00\x1f\x00\x00\x00\x00\x00\x00\x00 \x00\x00\x00\x00\x00\x00\x00!\x00\x00\x00\x00\x00\x00\x00"\x00\x00\x00\x00\x00\x00\x00#\x00\x00\x00\x00\x00\x00\x00$\x00\x00\x00\x00\x00\x00\x00%\x00\x00\x00\x00\x00\x00\x00&\x00\x00\x00\x00\x00\x00\x00\'\x00\x00\x00\x00\x00\x00\x00(\x00\x00\x00\x00\x00\x00\x00)\x00\x00\x00\x00\x00\x00\x00*\x00\x00\x00\x00\x00\x00\x00+\x00\x00\x00\x00\x00\x00\x00,\x00\x00\x00\x00\x00\x00\x00-\x00\x00\x00\x00\x00\x00\x00.\x00\x00\x00\x00\x00\x00\x00/\x00\x00\x00\x00\x00\x00\x000\x00\x00\x00\x00\x00\x00\x001\x00\x00\x00\x00\x00\x00\x002\x00\x00\x00\x00\x00\x00\x003\x00\x00\x00\x00\x00\x00\x004\x00\x00\x00\x00\x00\x00\x005\x00\x00\x00\x00\x00\x00\x006\x00\x00\x00\x00\x00\x00\x007\x00\x00\x00\x00\x00\x00\x00'
p197
tp198
bsg191
g122
sasstp199
bsb.