ccopy_reg
_reconstructor
p0
(cpandas.core.frame
DataFrame
p1
c__builtin__
object
p2
Ntp3
Rp4
(dp5
S'_metadata'
p6
(lp7
sS'_typ'
p8
S'dataframe'
p9
sS'_data'
p10
g0
(cpandas.core.internals
BlockManager
p11
g2
Ntp12
Rp13
((lp14
cpandas.core.indexes.base
_new_Index
p15
(cpandas.core.indexes.base
Index
p16
(dp17
S'data'
p18
cnumpy.core.multiarray
_reconstruct
p19
(cnumpy
ndarray
p20
(I0
tp21
S'b'
p22
tp23
Rp24
(I1
(I56
tp25
cnumpy
dtype
p26
(S'O8'
p27
I0
I1
tp28
Rp29
(I3
S'|'
p30
NNNI-1
I-1
I63
tp31
bI00
(lp32
S'year'
p33
aS'type'
p34
aS'procOriginal'
p35
aS'proc'
p36
aS'proc_s0'
p37
aS'cat'
p38
aS'inputWSFile'
p39
aS'nominalDataName'
p40
aS'modelWSFile'
p41
aS'model'
p42
aS'rate'
p43
aS'nominal_yield'
p44
aS'sumw2'
p45
aS'nominal_yield_COWCorr'
p46
aS'photon_id_sf_Diphoton_Photon__up_yield'
p47
aS'photon_id_sf_Diphoton_Photon__down_yield'
p48
aS'photon_presel_sf_Diphoton_Photon__up_yield'
p49
aS'photon_presel_sf_Diphoton_Photon__down_yield'
p50
aS'electron_veto_sf_Diphoton_Photon__up_yield'
p51
aS'electron_veto_sf_Diphoton_Photon__down_yield'
p52
aS'trigger_sf__up_yield'
p53
aS'trigger_sf__down_yield'
p54
aS'L1_prefiring_sf__up_yield'
p55
aS'L1_prefiring_sf__down_yield'
p56
aS'puWeight__up_yield'
p57
aS'puWeight__down_yield'
p58
aS'btag_deepjet_sf_SelectedbJet_jes__up_yield'
p59
aS'btag_deepjet_sf_SelectedbJet_jes__down_yield'
p60
aS'btag_deepjet_sf_SelectedbJet_lf__up_yield'
p61
aS'btag_deepjet_sf_SelectedbJet_lf__down_yield'
p62
aS'btag_deepjet_sf_SelectedbJet_hfstats1__up_yield'
p63
aS'btag_deepjet_sf_SelectedbJet_hfstats1__down_yield'
p64
aS'btag_deepjet_sf_SelectedbJet_hfstats2__up_yield'
p65
aS'btag_deepjet_sf_SelectedbJet_hfstats2__down_yield'
p66
aS'btag_deepjet_sf_SelectedbJet_cferr1__up_yield'
p67
aS'btag_deepjet_sf_SelectedbJet_cferr1__down_yield'
p68
aS'btag_deepjet_sf_SelectedbJet_cferr2__up_yield'
p69
aS'btag_deepjet_sf_SelectedbJet_cferr2__down_yield'
p70
aS'btag_deepjet_sf_SelectedbJet_hf__up_yield'
p71
aS'btag_deepjet_sf_SelectedbJet_hf__down_yield'
p72
aS'btag_deepjet_sf_SelectedbJet_lfstats1__up_yield'
p73
aS'btag_deepjet_sf_SelectedbJet_lfstats1__down_yield'
p74
aS'btag_deepjet_sf_SelectedbJet_lfstats2__up_yield'
p75
aS'btag_deepjet_sf_SelectedbJet_lfstats2__down_yield'
p76
aS'JES_up_yield'
p77
aS'JES_down_yield'
p78
aS'JER_up_yield'
p79
aS'JER_down_yield'
p80
aS'FJER_up_yield'
p81
aS'FJER_down_yield'
p82
aS'FJES_up_yield'
p83
aS'FJES_down_yield'
p84
aS'FJHEM_up_yield'
p85
aS'FJHEM_down_yield'
p86
aS'JetHEM_up_yield'
p87
aS'JetHEM_down_yield'
p88
atp89
bsS'name'
p90
Nstp91
Rp92
ag15
(cpandas.core.indexes.numeric
Int64Index
p93
(dp94
g18
g19
(g20
(I0
tp95
g22
tp96
Rp97
(I1
(I6
tp98
g26
(S'i8'
p99
I0
I1
tp100
Rp101
(I3
S'<'
p102
NNNI-1
I-1
I0
tp103
bI00
S'\x00\x00\x00\x00\x00\x00\x00\x00\x01\x00\x00\x00\x00\x00\x00\x00\x02\x00\x00\x00\x00\x00\x00\x00\x03\x00\x00\x00\x00\x00\x00\x00\x04\x00\x00\x00\x00\x00\x00\x00\x05\x00\x00\x00\x00\x00\x00\x00'
p104
tp105
bsg90
Nstp106
Rp107
a(lp108
g19
(g20
(I0
tp109
g22
tp110
Rp111
(I1
(I1
I6
tp112
g26
(S'f8'
p113
I0
I1
tp114
Rp115
(I3
S'<'
p116
NNNI-1
I-1
I0
tp117
bI00
S'\x00\x00\x00\x00\xc06\xed@\x00\x00\x00\x00\x00A\xe4@\x00\x00\x00\x00\x00\x06\xd3@\x00\x00\x00\x00\x00^\xd0@\x00\x00\x00\x00\x00\x00\xf0?\x00\x00\x00\x00\x00\x00\xf0\xbf'
p118
tp119
bag19
(g20
(I0
tp120
g22
tp121
Rp122
(I1
(I55
I6
tp123
g29
I00
(lp124
S'2018'
p125
aS'2017'
p126
aS'2016pre'
p127
aS'2016post'
p128
aS'merged'
p129
ag129
aS'sig'
p130
ag130
ag130
ag130
aS'bkg'
p131
ag18
aS'gghh'
p132
ag132
ag132
ag132
aS'bkg_mass'
p133
aS'data_obs'
p134
aS'gghh_2018_hgg'
p135
aS'gghh_2017_hgg'
p136
aS'gghh_2016pre_hgg'
p137
aS'gghh_2016post_hgg'
p138
ag133
ag134
ag132
ag132
ag132
ag132
aS'-'
p139
ag139
aS'boosted_cat2'
p140
ag140
ag140
ag140
ag140
ag140
aS'/eos/cms/store/group/phys_higgs/cmshgg/zhjie/output/output_1000_boost/opt/2018/root/addsys/ws_gghh_cat2_100/output_NMSSM_XToYHTo2B2G_MX-1000_MY-100_cat2_2018_M125_pythia8_gghh.root'
p141
aS'/eos/cms/store/group/phys_higgs/cmshgg/zhjie/output/output_1000_boost/opt/2017/root/addsys/ws_gghh_cat2_100/output_NMSSM_XToYHTo2B2G_MX-1000_MY-100_cat2_2017_M125_pythia8_gghh.root'
p142
aS'/eos/cms/store/group/phys_higgs/cmshgg/zhjie/output/output_1000_boost/opt/2016pre/root/addsys/ws_gghh_cat2_100/output_NMSSM_XToYHTo2B2G_MX-1000_MY-100_cat2_2016pre_M125_pythia8_gghh.root'
p143
aS'/eos/cms/store/group/phys_higgs/cmshgg/zhjie/output/output_1000_boost/opt/2016post/root/addsys/ws_gghh_cat2_100/output_NMSSM_XToYHTo2B2G_MX-1000_MY-100_cat2_2016post_M125_pythia8_gghh.root'
p144
ag139
ag139
aS'gghh_125_13TeV_boosted_cat2'
p145
aS'gghh_125_13TeV_boosted_cat2'
p146
aS'gghh_125_13TeV_boosted_cat2'
p147
aS'gghh_125_13TeV_boosted_cat2'
p148
ag139
ag139
aS'/eos/user/z/zhjie/CMSSW_10_2_13/src/flashggFinalFit/Signal/outdir_packaged_mergeyears_boost_masscut_1000_M100_cat2/CMS-HGG_sigfit_packaged_boosted_cat2.root'
p149
aS'/eos/user/z/zhjie/CMSSW_10_2_13/src/flashggFinalFit/Signal/outdir_packaged_mergeyears_boost_masscut_1000_M100_cat2/CMS-HGG_sigfit_packaged_boosted_cat2.root'
p150
aS'/eos/user/z/zhjie/CMSSW_10_2_13/src/flashggFinalFit/Signal/outdir_packaged_mergeyears_boost_masscut_1000_M100_cat2/CMS-HGG_sigfit_packaged_boosted_cat2.root'
p151
aS'/eos/user/z/zhjie/CMSSW_10_2_13/src/flashggFinalFit/Signal/outdir_packaged_mergeyears_boost_masscut_1000_M100_cat2/CMS-HGG_sigfit_packaged_boosted_cat2.root'
p152
aS'/eos/cms/store/group/phys_higgs/cmshgg/zhjie/output/output_1000_boost/opt/data/root/ws_cat2_100/CMS-HGG_multipdf_boosted_cat2.root'
p153
ag153
aS'wsig_13TeV:hggpdfsmrel_gghh_2018_boosted_cat2_13TeV'
p154
aS'wsig_13TeV:hggpdfsmrel_gghh_2017_boosted_cat2_13TeV'
p155
aS'wsig_13TeV:hggpdfsmrel_gghh_2016pre_boosted_cat2_13TeV'
p156
aS'wsig_13TeV:hggpdfsmrel_gghh_2016post_boosted_cat2_13TeV'
p157
aS'multipdf:CMS_hgg_boosted_cat2_13TeV_bkgshape'
p158
aS'multipdf:roohist_data_mass_boosted_cat2'
p159
aF0.026740171333595256
aF0.027647500949910725
aF0.025565812034210083
aF0.02543833469377113
ag139
ag139
aF7.02551555203149e-08
aF7.22343488947083e-08
aF1.3043631434662083e-07
aF1.44832668357464e-07
ag139
ag139
aF0.026740171333595256
aF0.027647500949910725
aF0.025565812034210083
aF0.02543833469377113
ag139
ag139
aF0.027516150820824148
aF0.029041416914942816
aF0.026316945050939046
aF0.02618229867486188
ag139
ag139
aF0.025974982703255777
aF0.026286479882126897
aF0.024825777774476792
aF0.024704633741396802
ag139
ag139
aF0.027987402775094945
aF0.02879063603484431
aF0.02664171283186589
aF0.026511735957014344
ag139
ag139
aF0.025521384715840766
aF0.02652757611695796
aF0.024512098121153403
aF0.02438712083945737
ag139
ag139
aF0.026776869913568715
aF0.02771119019360649
aF0.025606404954222946
aF0.025478799741095782
ag139
ag139
aF0.02670350357409087
aF0.027583894421133237
aF0.025525255327091215
aF0.025397905610148847
ag139
ag139
aF0.026797062966136636
aF0.027713490347842783
aF0.025618462528830627
aF0.025490232558480753
ag139
ag139
aF0.02668334113268098
aF0.02758158738657109
aF0.025513215976035796
aF0.025386490061462395
ag139
ag139
aF0.026740171333595256
aF0.02743333999812582
aF0.025439443137880564
aF0.025310793581365044
ag139
ag139
aF0.026740171333595256
aF0.027860575900747024
aF0.025692314527847183
aF0.025566100005717414
ag139
ag139
aF0.026806569848337056
aF0.027717751468461276
aF0.02559267330871976
aF0.025382909653932393
ag139
ag139
aF0.026673799320867476
aF0.02759381195309408
aF0.02551461581641098
aF0.02549552683352494
ag139
ag139
aF0.02661878737785794
aF0.02756031853806652
aF0.02550160367703831
aF0.025366797769745653
ag139
ag139
aF0.026854171758241653
aF0.027758986910483407
aF0.02564511330074725
aF0.025480884645301273
ag139
ag139
aF0.026387687112796782
aF0.027360191579372556
aF0.02524039803997736
aF0.02507398499823318
ag139
ag139
aF0.02674364674404135
aF0.02757693230244858
aF0.02553594369641629
aF0.0254129934110273
ag139
ag139
aF0.026811292096544977
aF0.02773229578600899
aF0.025684346718481015
aF0.025527453767708437
ag139
ag139
aF0.026653488710183835
aF0.0275395978543832
aF0.025417876669771033
aF0.025300882263005177
ag139
ag139
aF0.026597824904655346
aF0.027463496887484225
aF0.02532117425742179
aF0.02517151938997257
ag139
ag139
aF0.026878153144068932
aF0.02782466557215544
aF0.025798541647254845
aF0.0256918914379948
ag139
ag139
aF0.026862580455688907
aF0.027787695572059033
aF0.025693616271011847
aF0.025591459472445798
ag139
ag139
aF0.02660736073342078
aF0.02749522115907216
aF0.02542546521609347
aF0.025270967016890074
ag139
ag139
aF0.026802757618177513
aF0.027710651203073835
aF0.02563939451448016
aF0.02551895855037868
ag139
ag139
aF0.026672577060287375
aF0.027578902527572977
aF0.025483901083420954
aF0.02535025267306786
ag139
ag139
aF0.026426692756823775
aF0.02727827344360318
aF0.02519727930743089
aF0.02513291390902572
ag139
ag139
aF0.0270520103938956
aF0.027992109010593715
aF0.02592401476528708
aF0.02572996331131346
ag139
ag139
aF0.026701783436081553
aF0.027597135152313736
aF0.02550462182006029
aF0.025381819497089644
ag139
ag139
aF0.026779871895424346
aF0.027695650718582814
aF0.025623617899665586
aF0.025491423523530538
ag139
ag139
aF0.026678032025750226
aF0.027573900332008912
aF0.025466908481107633
aF0.025354853950727882
ag139
ag139
aF0.02680652181128714
aF0.027721487063279055
aF0.02566549650117688
aF0.025521758371789206
ag139
ag139
aF0.0268113139933842
aF0.027729816232861863
aF0.02564764539946383
aF0.025557849603412865
ag139
ag139
aF0.026870497959860153
aF0.027775224275903967
aF0.025648179069898257
aF0.025591975722822652
ag139
ag139
aF0.026829597404259862
aF0.02774853579137043
aF0.025643125485195192
aF0.025562383571902908
ag139
ag139
aF0.026838547104941043
aF0.027763180235309617
aF0.025650381155702544
aF0.025573981395653162
ag139
ag139
aF0.025854194820025194
aF0.026628981878593194
aF0.024855240183676172
aF0.024851722254371086
ag139
ag139
aF0.025932466663526728
aF0.026765554250379606
aF0.02491856481565988
aF0.024906064665571173
ag139
ag139
aF0.026017128602080747
aF0.026762311811450324
aF0.02498676788841331
aF0.02492195870204226
ag139
ag139
aF0.02575404091297283
aF0.026635439756249532
aF0.024800016764002952
aF0.024820430724958525
ag139
ag139
aF0.02589321729312022
aF0.027647500949910715
aF0.02556581203421011
aF0.025438334693771082
ag139
ag139
aF0.025808560571954974
aF0.027647500949910715
aF0.02556581203421011
aF0.025438334693771082
ag139
ag139
aF0.026837764649358647
aF0.027647500949910715
aF0.02556581203421011
aF0.025438334693771082
ag139
ag139
aF0.026841254913744995
aF0.027647500949910715
aF0.02556581203421011
aF0.025438334693771082
ag139
ag139
atp160
ba(lp161
g15
(g16
(dp162
g18
g19
(g20
(I0
tp163
g22
tp164
Rp165
(I1
(I1
tp166
g29
I00
(lp167
g43
atp168
bsg90
Nstp169
Rp170
ag15
(g16
(dp171
g18
g19
(g20
(I0
tp172
g22
tp173
Rp174
(I1
(I55
tp175
g29
I00
(lp176
g33
ag34
ag35
ag36
ag37
ag38
ag39
ag40
ag41
ag42
ag44
ag45
ag46
ag47
ag48
ag49
ag50
ag51
ag52
ag53
ag54
ag55
ag56
ag57
ag58
ag59
ag60
ag61
ag62
ag63
ag64
ag65
ag66
ag67
ag68
ag69
ag70
ag71
ag72
ag73
ag74
ag75
ag76
ag77
ag78
ag79
ag80
ag81
ag82
ag83
ag84
ag85
ag86
ag87
ag88
atp177
bsg90
Nstp178
Rp179
a(dp180
S'0.14.1'
p181
(dp182
S'axes'
p183
g14
sS'blocks'
p184
(lp185
(dp186
S'mgr_locs'
p187
c__builtin__
slice
p188
(I10
I11
I1
tp189
Rp190
sS'values'
p191
g111
sa(dp192
g187
g19
(g20
(I0
tp193
g22
tp194
Rp195
(I1
(I55
tp196
g101
I00
S'\x00\x00\x00\x00\x00\x00\x00\x00\x01\x00\x00\x00\x00\x00\x00\x00\x02\x00\x00\x00\x00\x00\x00\x00\x03\x00\x00\x00\x00\x00\x00\x00\x04\x00\x00\x00\x00\x00\x00\x00\x05\x00\x00\x00\x00\x00\x00\x00\x06\x00\x00\x00\x00\x00\x00\x00\x07\x00\x00\x00\x00\x00\x00\x00\x08\x00\x00\x00\x00\x00\x00\x00\t\x00\x00\x00\x00\x00\x00\x00\x0b\x00\x00\x00\x00\x00\x00\x00\x0c\x00\x00\x00\x00\x00\x00\x00\r\x00\x00\x00\x00\x00\x00\x00\x0e\x00\x00\x00\x00\x00\x00\x00\x0f\x00\x00\x00\x00\x00\x00\x00\x10\x00\x00\x00\x00\x00\x00\x00\x11\x00\x00\x00\x00\x00\x00\x00\x12\x00\x00\x00\x00\x00\x00\x00\x13\x00\x00\x00\x00\x00\x00\x00\x14\x00\x00\x00\x00\x00\x00\x00\x15\x00\x00\x00\x00\x00\x00\x00\x16\x00\x00\x00\x00\x00\x00\x00\x17\x00\x00\x00\x00\x00\x00\x00\x18\x00\x00\x00\x00\x00\x00\x00\x19\x00\x00\x00\x00\x00\x00\x00\x1a\x00\x00\x00\x00\x00\x00\x00\x1b\x00\x00\x00\x00\x00\x00\x00\x1c\x00\x00\x00\x00\x00\x00\x00\x1d\x00\x00\x00\x00\x00\x00\x00\x1e\x00\x00\x00\x00\x00\x00\x00\x1f\x00\x00\x00\x00\x00\x00\x00 \x00\x00\x00\x00\x00\x00\x00!\x00\x00\x00\x00\x00\x00\x00"\x00\x00\x00\x00\x00\x00\x00#\x00\x00\x00\x00\x00\x00\x00$\x00\x00\x00\x00\x00\x00\x00%\x00\x00\x00\x00\x00\x00\x00&\x00\x00\x00\x00\x00\x00\x00\'\x00\x00\x00\x00\x00\x00\x00(\x00\x00\x00\x00\x00\x00\x00)\x00\x00\x00\x00\x00\x00\x00*\x00\x00\x00\x00\x00\x00\x00+\x00\x00\x00\x00\x00\x00\x00,\x00\x00\x00\x00\x00\x00\x00-\x00\x00\x00\x00\x00\x00\x00.\x00\x00\x00\x00\x00\x00\x00/\x00\x00\x00\x00\x00\x00\x000\x00\x00\x00\x00\x00\x00\x001\x00\x00\x00\x00\x00\x00\x002\x00\x00\x00\x00\x00\x00\x003\x00\x00\x00\x00\x00\x00\x004\x00\x00\x00\x00\x00\x00\x005\x00\x00\x00\x00\x00\x00\x006\x00\x00\x00\x00\x00\x00\x007\x00\x00\x00\x00\x00\x00\x00'
p197
tp198
bsg191
g122
sasstp199
bsb.