ccopy_reg
_reconstructor
p0
(cpandas.core.frame
DataFrame
p1
c__builtin__
object
p2
Ntp3
Rp4
(dp5
S'_metadata'
p6
(lp7
sS'_typ'
p8
S'dataframe'
p9
sS'_data'
p10
g0
(cpandas.core.internals
BlockManager
p11
g2
Ntp12
Rp13
((lp14
cpandas.core.indexes.base
_new_Index
p15
(cpandas.core.indexes.base
Index
p16
(dp17
S'data'
p18
cnumpy.core.multiarray
_reconstruct
p19
(cnumpy
ndarray
p20
(I0
tp21
S'b'
p22
tp23
Rp24
(I1
(I56
tp25
cnumpy
dtype
p26
(S'O8'
p27
I0
I1
tp28
Rp29
(I3
S'|'
p30
NNNI-1
I-1
I63
tp31
bI00
(lp32
S'year'
p33
aS'type'
p34
aS'procOriginal'
p35
aS'proc'
p36
aS'proc_s0'
p37
aS'cat'
p38
aS'inputWSFile'
p39
aS'nominalDataName'
p40
aS'modelWSFile'
p41
aS'model'
p42
aS'rate'
p43
aS'nominal_yield'
p44
aS'sumw2'
p45
aS'nominal_yield_COWCorr'
p46
aS'photon_id_sf_Diphoton_Photon__up_yield'
p47
aS'photon_id_sf_Diphoton_Photon__down_yield'
p48
aS'photon_presel_sf_Diphoton_Photon__up_yield'
p49
aS'photon_presel_sf_Diphoton_Photon__down_yield'
p50
aS'electron_veto_sf_Diphoton_Photon__up_yield'
p51
aS'electron_veto_sf_Diphoton_Photon__down_yield'
p52
aS'trigger_sf__up_yield'
p53
aS'trigger_sf__down_yield'
p54
aS'L1_prefiring_sf__up_yield'
p55
aS'L1_prefiring_sf__down_yield'
p56
aS'puWeight__up_yield'
p57
aS'puWeight__down_yield'
p58
aS'btag_deepjet_sf_SelectedbJet_jes__up_yield'
p59
aS'btag_deepjet_sf_SelectedbJet_jes__down_yield'
p60
aS'btag_deepjet_sf_SelectedbJet_lf__up_yield'
p61
aS'btag_deepjet_sf_SelectedbJet_lf__down_yield'
p62
aS'btag_deepjet_sf_SelectedbJet_hfstats1__up_yield'
p63
aS'btag_deepjet_sf_SelectedbJet_hfstats1__down_yield'
p64
aS'btag_deepjet_sf_SelectedbJet_hfstats2__up_yield'
p65
aS'btag_deepjet_sf_SelectedbJet_hfstats2__down_yield'
p66
aS'btag_deepjet_sf_SelectedbJet_cferr1__up_yield'
p67
aS'btag_deepjet_sf_SelectedbJet_cferr1__down_yield'
p68
aS'btag_deepjet_sf_SelectedbJet_cferr2__up_yield'
p69
aS'btag_deepjet_sf_SelectedbJet_cferr2__down_yield'
p70
aS'btag_deepjet_sf_SelectedbJet_hf__up_yield'
p71
aS'btag_deepjet_sf_SelectedbJet_hf__down_yield'
p72
aS'btag_deepjet_sf_SelectedbJet_lfstats1__up_yield'
p73
aS'btag_deepjet_sf_SelectedbJet_lfstats1__down_yield'
p74
aS'btag_deepjet_sf_SelectedbJet_lfstats2__up_yield'
p75
aS'btag_deepjet_sf_SelectedbJet_lfstats2__down_yield'
p76
aS'JES_up_yield'
p77
aS'JES_down_yield'
p78
aS'JER_up_yield'
p79
aS'JER_down_yield'
p80
aS'FJER_up_yield'
p81
aS'FJER_down_yield'
p82
aS'FJES_up_yield'
p83
aS'FJES_down_yield'
p84
aS'FJHEM_up_yield'
p85
aS'FJHEM_down_yield'
p86
aS'JetHEM_up_yield'
p87
aS'JetHEM_down_yield'
p88
atp89
bsS'name'
p90
Nstp91
Rp92
ag15
(cpandas.core.indexes.numeric
Int64Index
p93
(dp94
g18
g19
(g20
(I0
tp95
g22
tp96
Rp97
(I1
(I6
tp98
g26
(S'i8'
p99
I0
I1
tp100
Rp101
(I3
S'<'
p102
NNNI-1
I-1
I0
tp103
bI00
S'\x00\x00\x00\x00\x00\x00\x00\x00\x01\x00\x00\x00\x00\x00\x00\x00\x02\x00\x00\x00\x00\x00\x00\x00\x03\x00\x00\x00\x00\x00\x00\x00\x04\x00\x00\x00\x00\x00\x00\x00\x05\x00\x00\x00\x00\x00\x00\x00'
p104
tp105
bsg90
Nstp106
Rp107
a(lp108
g19
(g20
(I0
tp109
g22
tp110
Rp111
(I1
(I1
I6
tp112
g26
(S'f8'
p113
I0
I1
tp114
Rp115
(I3
S'<'
p116
NNNI-1
I-1
I0
tp117
bI00
S'\x00\x00\x00\x00\xc06\xed@\x00\x00\x00\x00\x00A\xe4@\x00\x00\x00\x00\x00\x06\xd3@\x00\x00\x00\x00\x00^\xd0@\x00\x00\x00\x00\x00\x00\xf0?\x00\x00\x00\x00\x00\x00\xf0\xbf'
p118
tp119
bag19
(g20
(I0
tp120
g22
tp121
Rp122
(I1
(I55
I6
tp123
g29
I00
(lp124
S'2018'
p125
aS'2017'
p126
aS'2016pre'
p127
aS'2016post'
p128
aS'merged'
p129
ag129
aS'sig'
p130
ag130
ag130
ag130
aS'bkg'
p131
ag18
aS'gghh'
p132
ag132
ag132
ag132
aS'bkg_mass'
p133
aS'data_obs'
p134
aS'gghh_2018_hgg'
p135
aS'gghh_2017_hgg'
p136
aS'gghh_2016pre_hgg'
p137
aS'gghh_2016post_hgg'
p138
ag133
ag134
ag132
ag132
ag132
ag132
aS'-'
p139
ag139
aS'boosted_cat1'
p140
ag140
ag140
ag140
ag140
ag140
aS'/eos/cms/store/group/phys_higgs/cmshgg/zhjie/output/output_2000_boost/opt/2018/root/addsys/ws_gghh_cat1_300/output_NMSSM_XToYHTo2B2G_MX-2000_MY-300_cat1_2018_M125_pythia8_gghh.root'
p141
aS'/eos/cms/store/group/phys_higgs/cmshgg/zhjie/output/output_2000_boost/opt/2017/root/addsys/ws_gghh_cat1_300/output_NMSSM_XToYHTo2B2G_MX-2000_MY-300_cat1_2017_M125_pythia8_gghh.root'
p142
aS'/eos/cms/store/group/phys_higgs/cmshgg/zhjie/output/output_2000_boost/opt/2016pre/root/addsys/ws_gghh_cat1_300/output_NMSSM_XToYHTo2B2G_MX-2000_MY-300_cat1_2016pre_M125_pythia8_gghh.root'
p143
aS'/eos/cms/store/group/phys_higgs/cmshgg/zhjie/output/output_2000_boost/opt/2016post/root/addsys/ws_gghh_cat1_300/output_NMSSM_XToYHTo2B2G_MX-2000_MY-300_cat1_2016post_M125_pythia8_gghh.root'
p144
ag139
ag139
aS'gghh_125_13TeV_boosted_cat1'
p145
aS'gghh_125_13TeV_boosted_cat1'
p146
aS'gghh_125_13TeV_boosted_cat1'
p147
aS'gghh_125_13TeV_boosted_cat1'
p148
ag139
ag139
aS'/eos/user/z/zhjie/CMSSW_10_2_13/src/flashggFinalFit/Signal/outdir_packaged_mergeyears_boost_masscut_2000_M300_cat1/CMS-HGG_sigfit_packaged_boosted_cat1.root'
p149
aS'/eos/user/z/zhjie/CMSSW_10_2_13/src/flashggFinalFit/Signal/outdir_packaged_mergeyears_boost_masscut_2000_M300_cat1/CMS-HGG_sigfit_packaged_boosted_cat1.root'
p150
aS'/eos/user/z/zhjie/CMSSW_10_2_13/src/flashggFinalFit/Signal/outdir_packaged_mergeyears_boost_masscut_2000_M300_cat1/CMS-HGG_sigfit_packaged_boosted_cat1.root'
p151
aS'/eos/user/z/zhjie/CMSSW_10_2_13/src/flashggFinalFit/Signal/outdir_packaged_mergeyears_boost_masscut_2000_M300_cat1/CMS-HGG_sigfit_packaged_boosted_cat1.root'
p152
aS'/eos/cms/store/group/phys_higgs/cmshgg/zhjie/output/output_1000_boost/opt/data/root/ws_cat1/CMS-HGG_multipdf_boosted_cat1.root'
p153
ag153
aS'wsig_13TeV:hggpdfsmrel_gghh_2018_boosted_cat1_13TeV'
p154
aS'wsig_13TeV:hggpdfsmrel_gghh_2017_boosted_cat1_13TeV'
p155
aS'wsig_13TeV:hggpdfsmrel_gghh_2016pre_boosted_cat1_13TeV'
p156
aS'wsig_13TeV:hggpdfsmrel_gghh_2016post_boosted_cat1_13TeV'
p157
aS'multipdf:CMS_hgg_boosted_cat1_13TeV_bkgshape'
p158
aS'multipdf:roohist_data_mass_boosted_cat1'
p159
aF0.0869824794142177
aF0.08604031194964241
aF0.08354716805302699
aF0.0850609976012178
ag139
ag139
aF2.149624760479315e-07
aF2.0795683374817826e-07
aF4.424117702459162e-07
aF4.54055504956946e-07
ag139
ag139
aF0.0869824794142177
aF0.08604031194964241
aF0.08354716805302699
aF0.0850609976012178
ag139
ag139
aF0.08921183281685179
aF0.08952369762430347
aF0.08576383039042339
aF0.08728387214844979
ag139
ag139
aF0.08478290200472802
aF0.08263044677874913
aF0.08136194902245218
aF0.08286903014548373
ag139
ag139
aF0.09105576391534877
aF0.08964979191493887
aF0.08707814693540186
aF0.08866010824134361
ag139
ag139
aF0.08300243133420017
aF0.0825050799264022
aF0.08008929106474977
aF0.08153646677453806
ag139
ag139
aF0.08708172807916327
aF0.0862104771746327
aF0.08366004238786691
aF0.08517699375262704
ag139
ag139
aF0.08688330036316193
aF0.08587033462193275
aF0.083434378703315
aF0.08494509081758175
ag139
ag139
aF0.08716170853268043
aF0.08623029822685628
aF0.08371628966020744
aF0.08523417121076822
ag139
ag139
aF0.08680343813857302
aF0.08585052225830055
aF0.08337821839565476
aF0.08488800103568
ag139
ag139
aF0.0869824794142177
aF0.0854231111951109
aF0.08316503298251814
aF0.08467457946475608
ag139
ag139
aF0.0869824794142177
aF0.08664914785214593
aF0.0839291316158048
aF0.08544749632162983
ag139
ag139
aF0.08680420545398054
aF0.08592721955292974
aF0.08365493974463546
aF0.08508628732941419
ag139
ag139
aF0.08714066206000057
aF0.08608575434261467
aF0.08350972352421268
aF0.08503546557206038
ag139
ag139
aF0.08651874422260576
aF0.08553837627135873
aF0.08335082807917853
aF0.08479899773042526
ag139
ag139
aF0.08741833263154151
aF0.0866290739653732
aF0.08409940243977725
aF0.08550931072487877
ag139
ag139
aF0.08771854050351047
aF0.08684959672803295
aF0.08512873244380298
aF0.08655779955562792
ag139
ag139
aF0.08479332508091957
aF0.08381678719705207
aF0.08051885233961786
aF0.08197689166474957
ag139
ag139
aF0.08685359557673866
aF0.0859097998737402
aF0.08302752871017725
aF0.0843743684649772
ag139
ag139
aF0.0870424716108428
aF0.08607039399568785
aF0.08387993184217962
aF0.08549706451609462
ag139
ag139
aF0.08623358002026499
aF0.08516805013233059
aF0.08225587269487801
aF0.0835881180926136
ag139
ag139
aF0.0877274444641014
aF0.08689780551587627
aF0.0847852778362377
aF0.08648487948424416
ag139
ag139
aF0.08707136986128872
aF0.0861398624697681
aF0.0836133901541318
aF0.0851969767703176
ag139
ag139
aF0.08688025108442499
aF0.0859303801474136
aF0.0834689472414891
aF0.08490987835338695
ag139
ag139
aF0.08702256531820879
aF0.08607946564678365
aF0.08356306958805258
aF0.08512782805401786
ag139
ag139
aF0.08693566532850622
aF0.08599801048444165
aF0.08352371227041878
aF0.08498602706307924
ag139
ag139
aF0.08638288106967584
aF0.08542291931215439
aF0.08268089980542327
aF0.08431319149472863
ag139
ag139
aF0.08760402077534245
aF0.08663314298084399
aF0.08441750466853887
aF0.08580489079892364
ag139
ag139
aF0.08694993513346207
aF0.08600884454595832
aF0.08344135703426823
aF0.08497889253016219
ag139
ag139
aF0.08702044002521461
aF0.08607002033915884
aF0.08364940094474375
aF0.0851370712005856
ag139
ag139
aF0.08688667959010446
aF0.08594663746378331
aF0.08334273327375281
aF0.08489582593914964
ag139
ag139
aF0.0870892825572409
aF0.08613727992796961
aF0.08375605959406567
aF0.08522923037504293
ag139
ag139
aF0.08688256084621082
aF0.08596047902846514
aF0.08353963596186743
aF0.08503490432680433
ag139
ag139
aF0.08700089919119981
aF0.08604034521484732
aF0.08354732636399535
aF0.08507742801358574
ag139
ag139
aF0.08693734887247202
aF0.08598291379412894
aF0.0835485822457915
aF0.0850433252830171
ag139
ag139
aF0.08695522203946497
aF0.08602507275934862
aF0.08354287151025513
aF0.08504009150544416
ag139
ag139
aF0.08680526418180688
aF0.08588220878301979
aF0.08333991892593066
aF0.08489145785479403
ag139
ag139
aF0.08682998742202187
aF0.08590017494877407
aF0.08335898086894623
aF0.0849021019019177
ag139
ag139
aF0.08683617068465888
aF0.08591160378709821
aF0.08335898086894623
aF0.0849079185238691
ag139
ag139
aF0.0867965676954912
aF0.08587790868204322
aF0.08333432608189358
aF0.08488575129333079
ag139
ag139
aF0.08681730111177202
aF0.08604031194964237
aF0.08354716805302692
aF0.08506099760121831
ag139
ag139
aF0.086807493276506
aF0.08604031194964237
aF0.08354716805302692
aF0.08506099760121831
ag139
ag139
aF0.08694955652564178
aF0.08604031194964237
aF0.08354716805302692
aF0.08506099760121831
ag139
ag139
aF0.08695426344799935
aF0.08604031194964237
aF0.08354716805302692
aF0.08506099760121831
ag139
ag139
atp160
ba(lp161
g15
(g16
(dp162
g18
g19
(g20
(I0
tp163
g22
tp164
Rp165
(I1
(I1
tp166
g29
I00
(lp167
g43
atp168
bsg90
Nstp169
Rp170
ag15
(g16
(dp171
g18
g19
(g20
(I0
tp172
g22
tp173
Rp174
(I1
(I55
tp175
g29
I00
(lp176
g33
ag34
ag35
ag36
ag37
ag38
ag39
ag40
ag41
ag42
ag44
ag45
ag46
ag47
ag48
ag49
ag50
ag51
ag52
ag53
ag54
ag55
ag56
ag57
ag58
ag59
ag60
ag61
ag62
ag63
ag64
ag65
ag66
ag67
ag68
ag69
ag70
ag71
ag72
ag73
ag74
ag75
ag76
ag77
ag78
ag79
ag80
ag81
ag82
ag83
ag84
ag85
ag86
ag87
ag88
atp177
bsg90
Nstp178
Rp179
a(dp180
S'0.14.1'
p181
(dp182
S'axes'
p183
g14
sS'blocks'
p184
(lp185
(dp186
S'mgr_locs'
p187
c__builtin__
slice
p188
(I10
I11
I1
tp189
Rp190
sS'values'
p191
g111
sa(dp192
g187
g19
(g20
(I0
tp193
g22
tp194
Rp195
(I1
(I55
tp196
g101
I00
S'\x00\x00\x00\x00\x00\x00\x00\x00\x01\x00\x00\x00\x00\x00\x00\x00\x02\x00\x00\x00\x00\x00\x00\x00\x03\x00\x00\x00\x00\x00\x00\x00\x04\x00\x00\x00\x00\x00\x00\x00\x05\x00\x00\x00\x00\x00\x00\x00\x06\x00\x00\x00\x00\x00\x00\x00\x07\x00\x00\x00\x00\x00\x00\x00\x08\x00\x00\x00\x00\x00\x00\x00\t\x00\x00\x00\x00\x00\x00\x00\x0b\x00\x00\x00\x00\x00\x00\x00\x0c\x00\x00\x00\x00\x00\x00\x00\r\x00\x00\x00\x00\x00\x00\x00\x0e\x00\x00\x00\x00\x00\x00\x00\x0f\x00\x00\x00\x00\x00\x00\x00\x10\x00\x00\x00\x00\x00\x00\x00\x11\x00\x00\x00\x00\x00\x00\x00\x12\x00\x00\x00\x00\x00\x00\x00\x13\x00\x00\x00\x00\x00\x00\x00\x14\x00\x00\x00\x00\x00\x00\x00\x15\x00\x00\x00\x00\x00\x00\x00\x16\x00\x00\x00\x00\x00\x00\x00\x17\x00\x00\x00\x00\x00\x00\x00\x18\x00\x00\x00\x00\x00\x00\x00\x19\x00\x00\x00\x00\x00\x00\x00\x1a\x00\x00\x00\x00\x00\x00\x00\x1b\x00\x00\x00\x00\x00\x00\x00\x1c\x00\x00\x00\x00\x00\x00\x00\x1d\x00\x00\x00\x00\x00\x00\x00\x1e\x00\x00\x00\x00\x00\x00\x00\x1f\x00\x00\x00\x00\x00\x00\x00 \x00\x00\x00\x00\x00\x00\x00!\x00\x00\x00\x00\x00\x00\x00"\x00\x00\x00\x00\x00\x00\x00#\x00\x00\x00\x00\x00\x00\x00$\x00\x00\x00\x00\x00\x00\x00%\x00\x00\x00\x00\x00\x00\x00&\x00\x00\x00\x00\x00\x00\x00\'\x00\x00\x00\x00\x00\x00\x00(\x00\x00\x00\x00\x00\x00\x00)\x00\x00\x00\x00\x00\x00\x00*\x00\x00\x00\x00\x00\x00\x00+\x00\x00\x00\x00\x00\x00\x00,\x00\x00\x00\x00\x00\x00\x00-\x00\x00\x00\x00\x00\x00\x00.\x00\x00\x00\x00\x00\x00\x00/\x00\x00\x00\x00\x00\x00\x000\x00\x00\x00\x00\x00\x00\x001\x00\x00\x00\x00\x00\x00\x002\x00\x00\x00\x00\x00\x00\x003\x00\x00\x00\x00\x00\x00\x004\x00\x00\x00\x00\x00\x00\x005\x00\x00\x00\x00\x00\x00\x006\x00\x00\x00\x00\x00\x00\x007\x00\x00\x00\x00\x00\x00\x00'
p197
tp198
bsg191
g122
sasstp199
bsb.